
bomb:     file format elf32-i386


Disassembly of section .init:

080486bc <_init>:
 80486bc:	53                   	push   %ebx
 80486bd:	83 ec 08             	sub    $0x8,%esp
 80486c0:	e8 1b 02 00 00       	call   80488e0 <__x86.get_pc_thunk.bx>
 80486c5:	81 c3 3b 39 00 00    	add    $0x393b,%ebx
 80486cb:	8b 83 fc ff ff ff    	mov    -0x4(%ebx),%eax
 80486d1:	85 c0                	test   %eax,%eax
 80486d3:	74 05                	je     80486da <_init+0x1e>
 80486d5:	e8 c6 01 00 00       	call   80488a0 <.plt.got>
 80486da:	83 c4 08             	add    $0x8,%esp
 80486dd:	5b                   	pop    %ebx
 80486de:	c3                   	ret    

Disassembly of section .plt:

080486e0 <.plt>:
 80486e0:	ff 35 04 c0 04 08    	pushl  0x804c004
 80486e6:	ff 25 08 c0 04 08    	jmp    *0x804c008
 80486ec:	00 00                	add    %al,(%eax)
	...

080486f0 <read@plt>:
 80486f0:	ff 25 0c c0 04 08    	jmp    *0x804c00c
 80486f6:	68 00 00 00 00       	push   $0x0
 80486fb:	e9 e0 ff ff ff       	jmp    80486e0 <.plt>

08048700 <printf@plt>:
 8048700:	ff 25 10 c0 04 08    	jmp    *0x804c010
 8048706:	68 08 00 00 00       	push   $0x8
 804870b:	e9 d0 ff ff ff       	jmp    80486e0 <.plt>

08048710 <fflush@plt>:
 8048710:	ff 25 14 c0 04 08    	jmp    *0x804c014
 8048716:	68 10 00 00 00       	push   $0x10
 804871b:	e9 c0 ff ff ff       	jmp    80486e0 <.plt>

08048720 <memcpy@plt>:
 8048720:	ff 25 18 c0 04 08    	jmp    *0x804c018
 8048726:	68 18 00 00 00       	push   $0x18
 804872b:	e9 b0 ff ff ff       	jmp    80486e0 <.plt>

08048730 <fgets@plt>:
 8048730:	ff 25 1c c0 04 08    	jmp    *0x804c01c
 8048736:	68 20 00 00 00       	push   $0x20
 804873b:	e9 a0 ff ff ff       	jmp    80486e0 <.plt>

08048740 <signal@plt>:
 8048740:	ff 25 20 c0 04 08    	jmp    *0x804c020
 8048746:	68 28 00 00 00       	push   $0x28
 804874b:	e9 90 ff ff ff       	jmp    80486e0 <.plt>

08048750 <sleep@plt>:
 8048750:	ff 25 24 c0 04 08    	jmp    *0x804c024
 8048756:	68 30 00 00 00       	push   $0x30
 804875b:	e9 80 ff ff ff       	jmp    80486e0 <.plt>

08048760 <alarm@plt>:
 8048760:	ff 25 28 c0 04 08    	jmp    *0x804c028
 8048766:	68 38 00 00 00       	push   $0x38
 804876b:	e9 70 ff ff ff       	jmp    80486e0 <.plt>

08048770 <bcopy@plt>:
 8048770:	ff 25 2c c0 04 08    	jmp    *0x804c02c
 8048776:	68 40 00 00 00       	push   $0x40
 804877b:	e9 60 ff ff ff       	jmp    80486e0 <.plt>

08048780 <strcpy@plt>:
 8048780:	ff 25 30 c0 04 08    	jmp    *0x804c030
 8048786:	68 48 00 00 00       	push   $0x48
 804878b:	e9 50 ff ff ff       	jmp    80486e0 <.plt>

08048790 <gethostname@plt>:
 8048790:	ff 25 34 c0 04 08    	jmp    *0x804c034
 8048796:	68 50 00 00 00       	push   $0x50
 804879b:	e9 40 ff ff ff       	jmp    80486e0 <.plt>

080487a0 <getenv@plt>:
 80487a0:	ff 25 38 c0 04 08    	jmp    *0x804c038
 80487a6:	68 58 00 00 00       	push   $0x58
 80487ab:	e9 30 ff ff ff       	jmp    80486e0 <.plt>

080487b0 <puts@plt>:
 80487b0:	ff 25 3c c0 04 08    	jmp    *0x804c03c
 80487b6:	68 60 00 00 00       	push   $0x60
 80487bb:	e9 20 ff ff ff       	jmp    80486e0 <.plt>

080487c0 <exit@plt>:
 80487c0:	ff 25 40 c0 04 08    	jmp    *0x804c040
 80487c6:	68 68 00 00 00       	push   $0x68
 80487cb:	e9 10 ff ff ff       	jmp    80486e0 <.plt>

080487d0 <__libc_start_main@plt>:
 80487d0:	ff 25 44 c0 04 08    	jmp    *0x804c044
 80487d6:	68 70 00 00 00       	push   $0x70
 80487db:	e9 00 ff ff ff       	jmp    80486e0 <.plt>

080487e0 <fprintf@plt>:
 80487e0:	ff 25 48 c0 04 08    	jmp    *0x804c048
 80487e6:	68 78 00 00 00       	push   $0x78
 80487eb:	e9 f0 fe ff ff       	jmp    80486e0 <.plt>

080487f0 <write@plt>:
 80487f0:	ff 25 4c c0 04 08    	jmp    *0x804c04c
 80487f6:	68 80 00 00 00       	push   $0x80
 80487fb:	e9 e0 fe ff ff       	jmp    80486e0 <.plt>

08048800 <strcasecmp@plt>:
 8048800:	ff 25 50 c0 04 08    	jmp    *0x804c050
 8048806:	68 88 00 00 00       	push   $0x88
 804880b:	e9 d0 fe ff ff       	jmp    80486e0 <.plt>

08048810 <__isoc99_sscanf@plt>:
 8048810:	ff 25 54 c0 04 08    	jmp    *0x804c054
 8048816:	68 90 00 00 00       	push   $0x90
 804881b:	e9 c0 fe ff ff       	jmp    80486e0 <.plt>

08048820 <fopen@plt>:
 8048820:	ff 25 58 c0 04 08    	jmp    *0x804c058
 8048826:	68 98 00 00 00       	push   $0x98
 804882b:	e9 b0 fe ff ff       	jmp    80486e0 <.plt>

08048830 <__errno_location@plt>:
 8048830:	ff 25 5c c0 04 08    	jmp    *0x804c05c
 8048836:	68 a0 00 00 00       	push   $0xa0
 804883b:	e9 a0 fe ff ff       	jmp    80486e0 <.plt>

08048840 <sprintf@plt>:
 8048840:	ff 25 60 c0 04 08    	jmp    *0x804c060
 8048846:	68 a8 00 00 00       	push   $0xa8
 804884b:	e9 90 fe ff ff       	jmp    80486e0 <.plt>

08048850 <socket@plt>:
 8048850:	ff 25 64 c0 04 08    	jmp    *0x804c064
 8048856:	68 b0 00 00 00       	push   $0xb0
 804885b:	e9 80 fe ff ff       	jmp    80486e0 <.plt>

08048860 <gethostbyname@plt>:
 8048860:	ff 25 68 c0 04 08    	jmp    *0x804c068
 8048866:	68 b8 00 00 00       	push   $0xb8
 804886b:	e9 70 fe ff ff       	jmp    80486e0 <.plt>

08048870 <connect@plt>:
 8048870:	ff 25 6c c0 04 08    	jmp    *0x804c06c
 8048876:	68 c0 00 00 00       	push   $0xc0
 804887b:	e9 60 fe ff ff       	jmp    80486e0 <.plt>

08048880 <close@plt>:
 8048880:	ff 25 70 c0 04 08    	jmp    *0x804c070
 8048886:	68 c8 00 00 00       	push   $0xc8
 804888b:	e9 50 fe ff ff       	jmp    80486e0 <.plt>

08048890 <__ctype_b_loc@plt>:
 8048890:	ff 25 74 c0 04 08    	jmp    *0x804c074
 8048896:	68 d0 00 00 00       	push   $0xd0
 804889b:	e9 40 fe ff ff       	jmp    80486e0 <.plt>

Disassembly of section .plt.got:

080488a0 <.plt.got>:
 80488a0:	ff 25 fc bf 04 08    	jmp    *0x804bffc
 80488a6:	66 90                	xchg   %ax,%ax

Disassembly of section .text:

080488b0 <_start>:
 80488b0:	31 ed                	xor    %ebp,%ebp
 80488b2:	5e                   	pop    %esi
 80488b3:	89 e1                	mov    %esp,%ecx
 80488b5:	83 e4 f0             	and    $0xfffffff0,%esp
 80488b8:	50                   	push   %eax
 80488b9:	54                   	push   %esp
 80488ba:	52                   	push   %edx
 80488bb:	68 70 9f 04 08       	push   $0x8049f70
 80488c0:	68 00 9f 04 08       	push   $0x8049f00
 80488c5:	51                   	push   %ecx
 80488c6:	56                   	push   %esi
 80488c7:	68 ad 89 04 08       	push   $0x80489ad
 80488cc:	e8 ff fe ff ff       	call   80487d0 <__libc_start_main@plt>
 80488d1:	f4                   	hlt    
 80488d2:	66 90                	xchg   %ax,%ax
 80488d4:	66 90                	xchg   %ax,%ax
 80488d6:	66 90                	xchg   %ax,%ax
 80488d8:	66 90                	xchg   %ax,%ax
 80488da:	66 90                	xchg   %ax,%ax
 80488dc:	66 90                	xchg   %ax,%ax
 80488de:	66 90                	xchg   %ax,%ax

080488e0 <__x86.get_pc_thunk.bx>:
 80488e0:	8b 1c 24             	mov    (%esp),%ebx
 80488e3:	c3                   	ret    
 80488e4:	66 90                	xchg   %ax,%ax
 80488e6:	66 90                	xchg   %ax,%ax
 80488e8:	66 90                	xchg   %ax,%ax
 80488ea:	66 90                	xchg   %ax,%ax
 80488ec:	66 90                	xchg   %ax,%ax
 80488ee:	66 90                	xchg   %ax,%ax

080488f0 <deregister_tm_clones>:
 80488f0:	b8 23 c7 04 08       	mov    $0x804c723,%eax
 80488f5:	2d 20 c7 04 08       	sub    $0x804c720,%eax
 80488fa:	83 f8 06             	cmp    $0x6,%eax
 80488fd:	77 01                	ja     8048900 <deregister_tm_clones+0x10>
 80488ff:	c3                   	ret    
 8048900:	b8 00 00 00 00       	mov    $0x0,%eax
 8048905:	85 c0                	test   %eax,%eax
 8048907:	74 f6                	je     80488ff <deregister_tm_clones+0xf>
 8048909:	55                   	push   %ebp
 804890a:	89 e5                	mov    %esp,%ebp
 804890c:	83 ec 18             	sub    $0x18,%esp
 804890f:	c7 04 24 20 c7 04 08 	movl   $0x804c720,(%esp)
 8048916:	ff d0                	call   *%eax
 8048918:	c9                   	leave  
 8048919:	c3                   	ret    
 804891a:	8d b6 00 00 00 00    	lea    0x0(%esi),%esi

08048920 <register_tm_clones>:
 8048920:	b8 20 c7 04 08       	mov    $0x804c720,%eax
 8048925:	2d 20 c7 04 08       	sub    $0x804c720,%eax
 804892a:	c1 f8 02             	sar    $0x2,%eax
 804892d:	89 c2                	mov    %eax,%edx
 804892f:	c1 ea 1f             	shr    $0x1f,%edx
 8048932:	01 d0                	add    %edx,%eax
 8048934:	d1 f8                	sar    %eax
 8048936:	75 01                	jne    8048939 <register_tm_clones+0x19>
 8048938:	c3                   	ret    
 8048939:	ba 00 00 00 00       	mov    $0x0,%edx
 804893e:	85 d2                	test   %edx,%edx
 8048940:	74 f6                	je     8048938 <register_tm_clones+0x18>
 8048942:	55                   	push   %ebp
 8048943:	89 e5                	mov    %esp,%ebp
 8048945:	83 ec 18             	sub    $0x18,%esp
 8048948:	89 44 24 04          	mov    %eax,0x4(%esp)
 804894c:	c7 04 24 20 c7 04 08 	movl   $0x804c720,(%esp)
 8048953:	ff d2                	call   *%edx
 8048955:	c9                   	leave  
 8048956:	c3                   	ret    
 8048957:	89 f6                	mov    %esi,%esi
 8048959:	8d bc 27 00 00 00 00 	lea    0x0(%edi,%eiz,1),%edi

08048960 <__do_global_dtors_aux>:
 8048960:	80 3d 44 c7 04 08 00 	cmpb   $0x0,0x804c744
 8048967:	75 13                	jne    804897c <__do_global_dtors_aux+0x1c>
 8048969:	55                   	push   %ebp
 804896a:	89 e5                	mov    %esp,%ebp
 804896c:	83 ec 08             	sub    $0x8,%esp
 804896f:	e8 7c ff ff ff       	call   80488f0 <deregister_tm_clones>
 8048974:	c6 05 44 c7 04 08 01 	movb   $0x1,0x804c744
 804897b:	c9                   	leave  
 804897c:	f3 c3                	repz ret 
 804897e:	66 90                	xchg   %ax,%ax

08048980 <frame_dummy>:
 8048980:	a1 10 bf 04 08       	mov    0x804bf10,%eax
 8048985:	85 c0                	test   %eax,%eax
 8048987:	74 1f                	je     80489a8 <frame_dummy+0x28>
 8048989:	b8 00 00 00 00       	mov    $0x0,%eax
 804898e:	85 c0                	test   %eax,%eax
 8048990:	74 16                	je     80489a8 <frame_dummy+0x28>
 8048992:	55                   	push   %ebp
 8048993:	89 e5                	mov    %esp,%ebp
 8048995:	83 ec 18             	sub    $0x18,%esp
 8048998:	c7 04 24 10 bf 04 08 	movl   $0x804bf10,(%esp)
 804899f:	ff d0                	call   *%eax
 80489a1:	c9                   	leave  
 80489a2:	e9 79 ff ff ff       	jmp    8048920 <register_tm_clones>
 80489a7:	90                   	nop
 80489a8:	e9 73 ff ff ff       	jmp    8048920 <register_tm_clones>

080489ad <main>:
 80489ad:	55                   	push   %ebp
 80489ae:	89 e5                	mov    %esp,%ebp
 80489b0:	53                   	push   %ebx
 80489b1:	83 e4 f0             	and    $0xfffffff0,%esp
 80489b4:	83 ec 10             	sub    $0x10,%esp
 80489b7:	8b 45 08             	mov    0x8(%ebp),%eax
 80489ba:	8b 5d 0c             	mov    0xc(%ebp),%ebx
 80489bd:	83 f8 01             	cmp    $0x1,%eax
 80489c0:	75 0c                	jne    80489ce <main+0x21>
 80489c2:	a1 24 c7 04 08       	mov    0x804c724,%eax
 80489c7:	a3 4c c7 04 08       	mov    %eax,0x804c74c
 80489cc:	eb 64                	jmp    8048a32 <main+0x85>
 80489ce:	83 f8 02             	cmp    $0x2,%eax
 80489d1:	75 41                	jne    8048a14 <main+0x67>
 80489d3:	c7 44 24 04 ac 9f 04 	movl   $0x8049fac,0x4(%esp)
 80489da:	08 
 80489db:	8b 43 04             	mov    0x4(%ebx),%eax
 80489de:	89 04 24             	mov    %eax,(%esp)
 80489e1:	e8 3a fe ff ff       	call   8048820 <fopen@plt>
 80489e6:	a3 4c c7 04 08       	mov    %eax,0x804c74c
 80489eb:	85 c0                	test   %eax,%eax
 80489ed:	75 43                	jne    8048a32 <main+0x85>
 80489ef:	8b 43 04             	mov    0x4(%ebx),%eax
 80489f2:	89 44 24 08          	mov    %eax,0x8(%esp)
 80489f6:	8b 03                	mov    (%ebx),%eax
 80489f8:	89 44 24 04          	mov    %eax,0x4(%esp)
 80489fc:	c7 04 24 ae 9f 04 08 	movl   $0x8049fae,(%esp)
 8048a03:	e8 f8 fc ff ff       	call   8048700 <printf@plt>
 8048a08:	c7 04 24 08 00 00 00 	movl   $0x8,(%esp)
 8048a0f:	e8 ac fd ff ff       	call   80487c0 <exit@plt>
 8048a14:	8b 03                	mov    (%ebx),%eax
 8048a16:	89 44 24 04          	mov    %eax,0x4(%esp)
 8048a1a:	c7 04 24 cb 9f 04 08 	movl   $0x8049fcb,(%esp)
 8048a21:	e8 da fc ff ff       	call   8048700 <printf@plt>
 8048a26:	c7 04 24 08 00 00 00 	movl   $0x8,(%esp)
 8048a2d:	e8 8e fd ff ff       	call   80487c0 <exit@plt>
 8048a32:	e8 df 04 00 00       	call   8048f16 <initialize_bomb>
 8048a37:	c7 04 24 40 a0 04 08 	movl   $0x804a040,(%esp)
 8048a3e:	e8 6d fd ff ff       	call   80487b0 <puts@plt>
 8048a43:	c7 04 24 7c a0 04 08 	movl   $0x804a07c,(%esp)
 8048a4a:	e8 61 fd ff ff       	call   80487b0 <puts@plt>
 8048a4f:	e8 80 07 00 00       	call   80491d4 <read_line>
 8048a54:	89 04 24             	mov    %eax,(%esp)
 8048a57:	e8 b4 00 00 00       	call   8048b10 <phase_1>
 8048a5c:	e8 a7 08 00 00       	call   8049308 <phase_defused>
 8048a61:	c7 04 24 a8 a0 04 08 	movl   $0x804a0a8,(%esp)
 8048a68:	e8 43 fd ff ff       	call   80487b0 <puts@plt>
 8048a6d:	e8 62 07 00 00       	call   80491d4 <read_line>
 8048a72:	89 04 24             	mov    %eax,(%esp)
 8048a75:	e8 ba 00 00 00       	call   8048b34 <phase_2>
 8048a7a:	e8 89 08 00 00       	call   8049308 <phase_defused>
 8048a7f:	c7 04 24 e5 9f 04 08 	movl   $0x8049fe5,(%esp)
 8048a86:	e8 25 fd ff ff       	call   80487b0 <puts@plt>
 8048a8b:	e8 44 07 00 00       	call   80491d4 <read_line>
 8048a90:	89 04 24             	mov    %eax,(%esp)
 8048a93:	e8 f2 00 00 00       	call   8048b8a <phase_3>
 8048a98:	e8 6b 08 00 00       	call   8049308 <phase_defused>
 8048a9d:	c7 04 24 03 a0 04 08 	movl   $0x804a003,(%esp)
 8048aa4:	e8 07 fd ff ff       	call   80487b0 <puts@plt>
 8048aa9:	e8 26 07 00 00       	call   80491d4 <read_line>
 8048aae:	89 04 24             	mov    %eax,(%esp)
 8048ab1:	e8 b2 01 00 00       	call   8048c68 <phase_4>
 8048ab6:	e8 4d 08 00 00       	call   8049308 <phase_defused>
 8048abb:	c7 04 24 d4 a0 04 08 	movl   $0x804a0d4,(%esp)
 8048ac2:	e8 e9 fc ff ff       	call   80487b0 <puts@plt>
 8048ac7:	e8 08 07 00 00       	call   80491d4 <read_line>
 8048acc:	89 04 24             	mov    %eax,(%esp)
 8048acf:	e8 f4 01 00 00       	call   8048cc8 <phase_5>
 8048ad4:	e8 2f 08 00 00       	call   8049308 <phase_defused>
 8048ad9:	c7 04 24 14 a0 04 08 	movl   $0x804a014,(%esp)
 8048ae0:	e8 cb fc ff ff       	call   80487b0 <puts@plt>
 8048ae5:	e8 ea 06 00 00       	call   80491d4 <read_line>
 8048aea:	89 04 24             	mov    %eax,(%esp)
 8048aed:	e8 4a 02 00 00       	call   8048d3c <phase_6>
 8048af2:	e8 11 08 00 00       	call   8049308 <phase_defused>
 8048af7:	c7 04 24 32 a0 04 08 	movl   $0x804a032,(%esp)
 8048afe:	e8 ad fc ff ff       	call   80487b0 <puts@plt>
 8048b03:	b8 00 00 00 00       	mov    $0x0,%eax
 8048b08:	8b 5d fc             	mov    -0x4(%ebp),%ebx
 8048b0b:	c9                   	leave  
 8048b0c:	c3                   	ret    
 8048b0d:	66 90                	xchg   %ax,%ax
 8048b0f:	90                   	nop

08048b10 <phase_1>: //I am for medical liability at the federal level.
 8048b10:	83 ec 1c             	sub    $0x1c,%esp
 8048b13:	c7 44 24 04 f8 a0 04 	movl   $0x804a0f8,0x4(%esp)
 8048b1a:	08 
 8048b1b:	8b 44 24 20          	mov    0x20(%esp),%eax
 8048b1f:	89 04 24             	mov    %eax,(%esp)
 8048b22:	e8 83 03 00 00       	call   8048eaa <strings_not_equal>
 8048b27:	85 c0                	test   %eax,%eax
 8048b29:	74 05                	je     8048b30 <phase_1+0x20>
 8048b2b:	e8 15 06 00 00       	call   8049145 <explode_bomb>
 8048b30:	83 c4 1c             	add    $0x1c,%esp
 8048b33:	c3                   	ret    

08048b34 <phase_2>: //0 1 1 2 3 5
 8048b34:	56                   	push   %esi
 8048b35:	53                   	push   %ebx
 8048b36:	83 ec 34             	sub    $0x34,%esp
 8048b39:	8d 44 24 18          	lea    0x18(%esp),%eax
 8048b3d:	89 44 24 04          	mov    %eax,0x4(%esp)
 8048b41:	8b 44 24 40          	mov    0x40(%esp),%eax
 8048b45:	89 04 24             	mov    %eax,(%esp)
 8048b48:	e8 37 06 00 00       	call   8049184 <read_six_numbers>
 8048b4d:	83 7c 24 18 00       	cmpl   $0x0,0x18(%esp)				//first input is 0
 8048b52:	75 07                	jne    8048b5b <phase_2+0x27>
 8048b54:	83 7c 24 1c 01       	cmpl   $0x1,0x1c(%esp)				//second is 1				
 8048b59:	74 1f                	je     8048b7a <phase_2+0x46>
 8048b5b:	e8 e5 05 00 00       	call   8049145 <explode_bomb>
 8048b60:	eb 18                	jmp    8048b7a <phase_2+0x46>
 8048b62:	8b 43 f8             	mov    -0x8(%ebx),%eax				//START OF LOOP
 8048b65:	03 43 fc             	add    -0x4(%ebx),%eax
 8048b68:	39 03                	cmp    %eax,(%ebx)
 8048b6a:	74 05                	je     8048b71 <phase_2+0x3d>
 8048b6c:	e8 d4 05 00 00       	call   8049145 <explode_bomb>
 8048b71:	83 c3 04             	add    $0x4,%ebx
 8048b74:	39 f3                	cmp    %esi,%ebx
 8048b76:	75 ea                	jne    8048b62 <phase_2+0x2e>
 8048b78:	eb 0a                	jmp    8048b84 <phase_2+0x50>
 8048b7a:	8d 5c 24 20          	lea    0x20(%esp),%ebx
 8048b7e:	8d 74 24 30          	lea    0x30(%esp),%esi
 8048b82:	eb de                	jmp    8048b62 <phase_2+0x2e>	//back to beginning of loop
 8048b84:	83 c4 34             	add    $0x34,%esp
 8048b87:	5b                   	pop    %ebx
 8048b88:	5e                   	pop    %esi
 8048b89:	c3                   	ret    

08048b8a <phase_3>: //3 308
 8048b8a:	83 ec 2c             	sub    $0x2c,%esp
 8048b8d:	8d 44 24 18          	lea    0x18(%esp),%eax
 8048b91:	89 44 24 0c          	mov    %eax,0xc(%esp)
 8048b95:	8d 44 24 1c          	lea    0x1c(%esp),%eax
 8048b99:	89 44 24 08          	mov    %eax,0x8(%esp)
 8048b9d:	c7 44 24 04 81 a3 04 	movl   $0x804a381,0x4(%esp)				//INPUT IS 2 NUMBERS
 8048ba4:	08 
 8048ba5:	8b 44 24 30          	mov    0x30(%esp),%eax
 8048ba9:	89 04 24             	mov    %eax,(%esp)
 8048bac:	e8 5f fc ff ff       	call   8048810 <__isoc99_sscanf@plt>	//input read
 8048bb1:	83 f8 01             	cmp    $0x1,%eax						//first number greater than or = 1, otherwise explode 
 8048bb4:	7f 05                	jg     8048bbb <phase_3+0x31>
 8048bb6:	e8 8a 05 00 00       	call   8049145 <explode_bomb>
 8048bbb:	83 7c 24 1c 07       	cmpl   $0x7,0x1c(%esp)
 8048bc0:	77 3c                	ja     8048bfe <phase_3+0x74>			//explode bomb if 2nd num above 7?
 8048bc2:	8b 44 24 1c          	mov    0x1c(%esp),%eax
 8048bc6:	ff 24 85 40 a1 04 08 	jmp    *0x804a140(,%eax,4)
 8048bcd:	b8 af 03 00 00       	mov    $0x3af,%eax
 8048bd2:	eb 3b                	jmp    8048c0f <phase_3+0x85>
 8048bd4:	b8 db 02 00 00       	mov    $0x2db,%eax
 8048bd9:	eb 34                	jmp    8048c0f <phase_3+0x85>
 8048bdb:	b8 34 01 00 00       	mov    $0x134,%eax						//moves 0x134 (308) to eax
 8048be0:	eb 2d                	jmp    8048c0f <phase_3+0x85>
 8048be2:	b8 b7 01 00 00       	mov    $0x1b7,%eax
 8048be7:	eb 26                	jmp    8048c0f <phase_3+0x85>
 8048be9:	b8 56 00 00 00       	mov    $0x56,%eax
 8048bee:	eb 1f                	jmp    8048c0f <phase_3+0x85>
 8048bf0:	b8 26 02 00 00       	mov    $0x226,%eax
 8048bf5:	eb 18                	jmp    8048c0f <phase_3+0x85>
 8048bf7:	b8 ea 01 00 00       	mov    $0x1ea,%eax
 8048bfc:	eb 11                	jmp    8048c0f <phase_3+0x85>
 8048bfe:	e8 42 05 00 00       	call   8049145 <explode_bomb>
 8048c03:	b8 00 00 00 00       	mov    $0x0,%eax
 8048c08:	eb 05                	jmp    8048c0f <phase_3+0x85>
 8048c0a:	b8 d4 00 00 00       	mov    $0xd4,%eax
 8048c0f:	3b 44 24 18          	cmp    0x18(%esp),%eax
 8048c13:	74 05                	je     8048c1a <phase_3+0x90>
 8048c15:	e8 2b 05 00 00       	call   8049145 <explode_bomb>
 8048c1a:	83 c4 2c             	add    $0x2c,%esp
 8048c1d:	c3                   	ret    

08048c1e <func4>:
 8048c1e:	57                   	push   %edi
 8048c1f:	56                   	push   %esi
 8048c20:	53                   	push   %ebx
 8048c21:	83 ec 10             	sub    $0x10,%esp
 8048c24:	8b 5c 24 20          	mov    0x20(%esp),%ebx
 8048c28:	8b 74 24 24          	mov    0x24(%esp),%esi
 8048c2c:	85 db                	test   %ebx,%ebx
 8048c2e:	7e 2c                	jle    8048c5c <func4+0x3e>
 8048c30:	89 f0                	mov    %esi,%eax
 8048c32:	83 fb 01             	cmp    $0x1,%ebx
 8048c35:	74 2a                	je     8048c61 <func4+0x43>
 8048c37:	89 74 24 04          	mov    %esi,0x4(%esp)
 8048c3b:	8d 43 ff             	lea    -0x1(%ebx),%eax
 8048c3e:	89 04 24             	mov    %eax,(%esp)
 8048c41:	e8 d8 ff ff ff       	call   8048c1e <func4>			//keeps decreasing eax & ebx 
 8048c46:	8d 3c 30             	lea    (%eax,%esi,1),%edi
 8048c49:	89 74 24 04          	mov    %esi,0x4(%esp)
 8048c4d:	83 eb 02             	sub    $0x2,%ebx
 8048c50:	89 1c 24             	mov    %ebx,(%esp)
 8048c53:	e8 c6 ff ff ff       	call   8048c1e <func4>
 8048c58:	01 f8                	add    %edi,%eax
 8048c5a:	eb 05                	jmp    8048c61 <func4+0x43>
 8048c5c:	b8 00 00 00 00       	mov    $0x0,%eax
 8048c61:	83 c4 10             	add    $0x10,%esp
 8048c64:	5b                   	pop    %ebx
 8048c65:	5e                   	pop    %esi
 8048c66:	5f                   	pop    %edi
 8048c67:	c3                   	ret    

08048c68 <phase_4>: //176 2
 8048c68:	83 ec 2c             	sub    $0x2c,%esp
 8048c6b:	8d 44 24 1c          	lea    0x1c(%esp),%eax
 8048c6f:	89 44 24 0c          	mov    %eax,0xc(%esp)
 8048c73:	8d 44 24 18          	lea    0x18(%esp),%eax
 8048c77:	89 44 24 08          	mov    %eax,0x8(%esp)
 8048c7b:	c7 44 24 04 81 a3 04 	movl   $0x804a381,0x4(%esp)				//INPUT IS 2 NUMBERS
 8048c82:	08 
 8048c83:	8b 44 24 30          	mov    0x30(%esp),%eax
 8048c87:	89 04 24             	mov    %eax,(%esp)
 8048c8a:	e8 81 fb ff ff       	call   8048810 <__isoc99_sscanf@plt>	//input read
 8048c8f:	83 f8 02             	cmp    $0x2,%eax						//2 inputs
 8048c92:	75 0c                	jne    8048ca0 <phase_4+0x38>			//ca0 = explode
 8048c94:	8b 44 24 1c          	mov    0x1c(%esp),%eax					//moves 2nd val into eax
 8048c98:	83 e8 02             	sub    $0x2,%eax						//subtract 2 from eax
 8048c9b:	83 f8 02             	cmp    $0x2,%eax						//comp 2 to eax 
 8048c9e:	76 05                	jbe    8048ca5 <phase_4+0x3d>			//jump if eax is <= 2, otherwise explode
 8048ca0:	e8 a0 04 00 00       	call   8049145 <explode_bomb>
 8048ca5:	8b 44 24 1c          	mov    0x1c(%esp),%eax					//moves 2nd val into eax again
 8048ca9:	89 44 24 04          	mov    %eax,0x4(%esp)
 8048cad:	c7 04 24 09 00 00 00 	movl   $0x9,(%esp)						//esp = 9
 8048cb4:	e8 65 ff ff ff       	call   8048c1e <func4>					
 8048cb9:	3b 44 24 18          	cmp    0x18(%esp),%eax					//compare esp + 0x18 to eax (value returned from func4)
 8048cbd:	74 05                	je     8048cc4 <phase_4+0x5c>
 8048cbf:	e8 81 04 00 00       	call   8049145 <explode_bomb>
 8048cc4:	83 c4 2c             	add    $0x2c,%esp
 8048cc7:	c3                   	ret    

08048cc8 <phase_5>: //5 115
 8048cc8:	83 ec 2c             	sub    $0x2c,%esp
 8048ccb:	8d 44 24 18          	lea    0x18(%esp),%eax
 8048ccf:	89 44 24 0c          	mov    %eax,0xc(%esp)
 8048cd3:	8d 44 24 1c          	lea    0x1c(%esp),%eax
 8048cd7:	89 44 24 08          	mov    %eax,0x8(%esp)
 8048cdb:	c7 44 24 04 81 a3 04 	movl   $0x804a381,0x4(%esp)				//INPUT IS 2 NUMBERS
 8048ce2:	08 
 8048ce3:	8b 44 24 30          	mov    0x30(%esp),%eax
 8048ce7:	89 04 24             	mov    %eax,(%esp)
 8048cea:	e8 21 fb ff ff       	call   8048810 <__isoc99_sscanf@plt>	//input read
 8048cef:	83 f8 01             	cmp    $0x1,%eax
 8048cf2:	7f 05                	jg     8048cf9 <phase_5+0x31>			//first input > 1.....but 0 works??? hmmm
 8048cf4:	e8 4c 04 00 00       	call   8049145 <explode_bomb>
 8048cf9:	8b 44 24 1c          	mov    0x1c(%esp),%eax					//move 2nd number to eax
 8048cfd:	83 e0 0f             	and    $0xf,%eax						//bitwise AND with 15 and 2nd number 
 8048d00:	89 44 24 1c          	mov    %eax,0x1c(%esp)
 8048d04:	83 f8 0f             	cmp    $0xf,%eax						//compare 15 with 2nd number
 8048d07:	74 2a                	je     8048d33 <phase_5+0x6b>			//if equal, explode
 8048d09:	b9 00 00 00 00       	mov    $0x0,%ecx						//ecx = 0
 8048d0e:	ba 00 00 00 00       	mov    $0x0,%edx						//edx = 0
 8048d13:	83 c2 01             	add    $0x1,%edx						//edx = 1 -- START OF LOOP
 8048d16:	8b 04 85 60 a1 04 08 	mov    0x804a160(,%eax,4),%eax			//0x804a160 = 10 - ARRAY? [10 2 14 7 8 12 15 11 0 4 1 13 3 9 6 5] puts nth # in eax
 8048d1d:	01 c1                	add    %eax,%ecx						//ecx is the sum of all the elements
 8048d1f:	83 f8 0f             	cmp    $0xf,%eax						//compare eax with 15
 8048d22:	75 ef                	jne    8048d13 <phase_5+0x4b>			//loop back to d13 if eax != 15
 8048d24:	89 44 24 1c          	mov    %eax,0x1c(%esp)
 8048d28:	83 fa 0f             	cmp    $0xf,%edx						//compare edx with 15, explode if not equal. EDX MUST BE 15 - loop runs 15 times??
 8048d2b:	75 06                	jne    8048d33 <phase_5+0x6b>
 8048d2d:	3b 4c 24 18          	cmp    0x18(%esp),%ecx					//115
 8048d31:	74 05                	je     8048d38 <phase_5+0x70>
 8048d33:	e8 0d 04 00 00       	call   8049145 <explode_bomb>
 8048d38:	83 c4 2c             	add    $0x2c,%esp
 8048d3b:	c3                   	ret    

08048d3c <phase_6>: //6 numbers, unique inputs, all under 6. 6 NODES . LINKED LIST. 3 1
 8048d3c:	56                   	push   %esi
 8048d3d:	53                   	push   %ebx
 8048d3e:	83 ec 44             	sub    $0x44,%esp
 8048d41:	8d 44 24 28          	lea    0x28(%esp),%eax
 8048d45:	89 44 24 04          	mov    %eax,0x4(%esp)
 8048d49:	8b 44 24 50          	mov    0x50(%esp),%eax
 8048d4d:	89 04 24             	mov    %eax,(%esp)
 8048d50:	e8 2f 04 00 00       	call   8049184 <read_six_numbers>	//INPUT IS 6 NUMBERS
 8048d55:	be 00 00 00 00       	mov    $0x0,%esi
 8048d5a:	8b 44 b4 28          	mov    0x28(%esp,%esi,4),%eax
 8048d5e:	83 e8 01             	sub    $0x1,%eax
 8048d61:	83 f8 05             	cmp    $0x5,%eax
 8048d64:	76 05                	jbe    8048d6b <phase_6+0x2f>
 8048d66:	e8 da 03 00 00       	call   8049145 <explode_bomb>
 8048d6b:	83 c6 01             	add    $0x1,%esi
 8048d6e:	83 fe 06             	cmp    $0x6,%esi
 8048d71:	75 07                	jne    8048d7a <phase_6+0x3e>
 8048d73:	bb 00 00 00 00       	mov    $0x0,%ebx
 8048d78:	eb 39                	jmp    8048db3 <phase_6+0x77>
 8048d7a:	89 f3                	mov    %esi,%ebx
 8048d7c:	8b 44 9c 28          	mov    0x28(%esp,%ebx,4),%eax
 8048d80:	39 44 b4 24          	cmp    %eax,0x24(%esp,%esi,4)
 8048d84:	75 05                	jne    8048d8b <phase_6+0x4f>
 8048d86:	e8 ba 03 00 00       	call   8049145 <explode_bomb>
 8048d8b:	83 c3 01             	add    $0x1,%ebx
 8048d8e:	83 fb 05             	cmp    $0x5,%ebx
 8048d91:	7e e9                	jle    8048d7c <phase_6+0x40>
 8048d93:	eb c5                	jmp    8048d5a <phase_6+0x1e>
 8048d95:	8b 52 08             	mov    0x8(%edx),%edx
 8048d98:	83 c0 01             	add    $0x1,%eax
 8048d9b:	39 c8                	cmp    %ecx,%eax
 8048d9d:	75 f6                	jne    8048d95 <phase_6+0x59>
 8048d9f:	90                   	nop
 8048da0:	eb 05                	jmp    8048da7 <phase_6+0x6b>
 8048da2:	ba a0 c0 04 08       	mov    $0x804c0a0,%edx
 8048da7:	89 54 b4 10          	mov    %edx,0x10(%esp,%esi,4)
 8048dab:	83 c3 01             	add    $0x1,%ebx
 8048dae:	83 fb 06             	cmp    $0x6,%ebx
 8048db1:	74 17                	je     8048dca <phase_6+0x8e>
 8048db3:	89 de                	mov    %ebx,%esi
 8048db5:	8b 4c 9c 28          	mov    0x28(%esp,%ebx,4),%ecx
 8048db9:	83 f9 01             	cmp    $0x1,%ecx
 8048dbc:	7e e4                	jle    8048da2 <phase_6+0x66>
 8048dbe:	b8 01 00 00 00       	mov    $0x1,%eax
 8048dc3:	ba a0 c0 04 08       	mov    $0x804c0a0,%edx
 8048dc8:	eb cb                	jmp    8048d95 <phase_6+0x59>
 8048dca:	8b 5c 24 10          	mov    0x10(%esp),%ebx
 8048dce:	8d 44 24 14          	lea    0x14(%esp),%eax
 8048dd2:	8d 74 24 28          	lea    0x28(%esp),%esi
 8048dd6:	89 d9                	mov    %ebx,%ecx
 8048dd8:	8b 10                	mov    (%eax),%edx
 8048dda:	89 51 08             	mov    %edx,0x8(%ecx)
 8048ddd:	83 c0 04             	add    $0x4,%eax
 8048de0:	39 f0                	cmp    %esi,%eax
 8048de2:	74 04                	je     8048de8 <phase_6+0xac>
 8048de4:	89 d1                	mov    %edx,%ecx
 8048de6:	eb f0                	jmp    8048dd8 <phase_6+0x9c>
 8048de8:	c7 42 08 00 00 00 00 	movl   $0x0,0x8(%edx)
 8048def:	be 05 00 00 00       	mov    $0x5,%esi
 8048df4:	8b 43 08             	mov    0x8(%ebx),%eax
 8048df7:	8b 00                	mov    (%eax),%eax
 8048df9:	39 03                	cmp    %eax,(%ebx)
 8048dfb:	7e 05                	jle    8048e02 <phase_6+0xc6>
 8048dfd:	e8 43 03 00 00       	call   8049145 <explode_bomb>
 8048e02:	8b 5b 08             	mov    0x8(%ebx),%ebx
 8048e05:	83 ee 01             	sub    $0x1,%esi
 8048e08:	75 ea                	jne    8048df4 <phase_6+0xb8>
 8048e0a:	83 c4 44             	add    $0x44,%esp
 8048e0d:	5b                   	pop    %ebx
 8048e0e:	5e                   	pop    %esi
 8048e0f:	c3                   	ret

3 2 1 6 4 5
(gdb) x /3x $ebx
0x804c0a0 <node1>:      0x000000cf      0x00000001      0x0804c0ac (207)
(gdb) x /3x *($ebx + 8)
0x804c0ac <node2>:      0x00000088      0x00000002      0x0804c0b8 (136)
(gdb) x /3x *($ebx + 8)
0x804c0ac <node2>:      0x00000088      0x00000002      0x0804c0b8 
(gdb) x /3x *(*($ebx + 8) + 8)
0x804c0b8 <node3>:      0x00000066      0x00000003      0x0804c0c4 (102)
(gdb) x /3x *(*(*($ebx + 8) + 8) + 8)
0x804c0c4 <node4>:      0x00000179      0x00000004      0x0804c0d0 (377)
(gdb) x /3x *(*(*(*($ebx + 8) + 8) + 8)+ 8)
0x804c0d0 <node5>:      0x000001c4      0x00000005      0x0804c0dc (452)
(gdb) x /3x *(*(*(*(*($ebx + 8) + 8) + 8)+ 8)+8)
0x804c0dc <node6>:      0x000000fc      0x00000006      0x00000000 (252)


08048e10 <sig_handler>:
 8048e10:	83 ec 1c             	sub    $0x1c,%esp
 8048e13:	c7 04 24 a0 a1 04 08 	movl   $0x804a1a0,(%esp)
 8048e1a:	e8 91 f9 ff ff       	call   80487b0 <puts@plt>
 8048e1f:	c7 04 24 03 00 00 00 	movl   $0x3,(%esp)
 8048e26:	e8 25 f9 ff ff       	call   8048750 <sleep@plt>
 8048e2b:	c7 04 24 fd a2 04 08 	movl   $0x804a2fd,(%esp)
 8048e32:	e8 c9 f8 ff ff       	call   8048700 <printf@plt>
 8048e37:	a1 40 c7 04 08       	mov    0x804c740,%eax
 8048e3c:	89 04 24             	mov    %eax,(%esp)
 8048e3f:	e8 cc f8 ff ff       	call   8048710 <fflush@plt>
 8048e44:	c7 04 24 01 00 00 00 	movl   $0x1,(%esp)
 8048e4b:	e8 00 f9 ff ff       	call   8048750 <sleep@plt>
 8048e50:	c7 04 24 05 a3 04 08 	movl   $0x804a305,(%esp)
 8048e57:	e8 54 f9 ff ff       	call   80487b0 <puts@plt>
 8048e5c:	c7 04 24 10 00 00 00 	movl   $0x10,(%esp)
 8048e63:	e8 58 f9 ff ff       	call   80487c0 <exit@plt>

08048e68 <invalid_phase>:
 8048e68:	83 ec 1c             	sub    $0x1c,%esp
 8048e6b:	8b 44 24 20          	mov    0x20(%esp),%eax
 8048e6f:	89 44 24 04          	mov    %eax,0x4(%esp)
 8048e73:	c7 04 24 0d a3 04 08 	movl   $0x804a30d,(%esp)
 8048e7a:	e8 81 f8 ff ff       	call   8048700 <printf@plt>
 8048e7f:	c7 04 24 08 00 00 00 	movl   $0x8,(%esp)
 8048e86:	e8 35 f9 ff ff       	call   80487c0 <exit@plt>

08048e8b <string_length>:
 8048e8b:	8b 54 24 04          	mov    0x4(%esp),%edx
 8048e8f:	80 3a 00             	cmpb   $0x0,(%edx)
 8048e92:	74 10                	je     8048ea4 <string_length+0x19>
 8048e94:	b8 00 00 00 00       	mov    $0x0,%eax
 8048e99:	83 c0 01             	add    $0x1,%eax
 8048e9c:	80 3c 02 00          	cmpb   $0x0,(%edx,%eax,1)
 8048ea0:	75 f7                	jne    8048e99 <string_length+0xe>
 8048ea2:	f3 c3                	repz ret 
 8048ea4:	b8 00 00 00 00       	mov    $0x0,%eax
 8048ea9:	c3                   	ret    

08048eaa <strings_not_equal>:
 8048eaa:	57                   	push   %edi
 8048eab:	56                   	push   %esi
 8048eac:	53                   	push   %ebx
 8048ead:	83 ec 04             	sub    $0x4,%esp
 8048eb0:	8b 5c 24 14          	mov    0x14(%esp),%ebx
 8048eb4:	8b 74 24 18          	mov    0x18(%esp),%esi
 8048eb8:	89 1c 24             	mov    %ebx,(%esp)
 8048ebb:	e8 cb ff ff ff       	call   8048e8b <string_length>
 8048ec0:	89 c7                	mov    %eax,%edi
 8048ec2:	89 34 24             	mov    %esi,(%esp)
 8048ec5:	e8 c1 ff ff ff       	call   8048e8b <string_length>
 8048eca:	ba 01 00 00 00       	mov    $0x1,%edx
 8048ecf:	39 c7                	cmp    %eax,%edi
 8048ed1:	75 3a                	jne    8048f0d <strings_not_equal+0x63>
 8048ed3:	0f b6 03             	movzbl (%ebx),%eax
 8048ed6:	84 c0                	test   %al,%al
 8048ed8:	74 20                	je     8048efa <strings_not_equal+0x50>
 8048eda:	3a 06                	cmp    (%esi),%al
 8048edc:	74 08                	je     8048ee6 <strings_not_equal+0x3c>
 8048ede:	66 90                	xchg   %ax,%ax
 8048ee0:	eb 1f                	jmp    8048f01 <strings_not_equal+0x57>
 8048ee2:	3a 06                	cmp    (%esi),%al
 8048ee4:	75 22                	jne    8048f08 <strings_not_equal+0x5e>
 8048ee6:	83 c3 01             	add    $0x1,%ebx
 8048ee9:	83 c6 01             	add    $0x1,%esi
 8048eec:	0f b6 03             	movzbl (%ebx),%eax
 8048eef:	84 c0                	test   %al,%al
 8048ef1:	75 ef                	jne    8048ee2 <strings_not_equal+0x38>
 8048ef3:	ba 00 00 00 00       	mov    $0x0,%edx
 8048ef8:	eb 13                	jmp    8048f0d <strings_not_equal+0x63>
 8048efa:	ba 00 00 00 00       	mov    $0x0,%edx
 8048eff:	eb 0c                	jmp    8048f0d <strings_not_equal+0x63>
 8048f01:	ba 01 00 00 00       	mov    $0x1,%edx
 8048f06:	eb 05                	jmp    8048f0d <strings_not_equal+0x63>
 8048f08:	ba 01 00 00 00       	mov    $0x1,%edx
 8048f0d:	89 d0                	mov    %edx,%eax
 8048f0f:	83 c4 04             	add    $0x4,%esp
 8048f12:	5b                   	pop    %ebx
 8048f13:	5e                   	pop    %esi
 8048f14:	5f                   	pop    %edi
 8048f15:	c3                   	ret    

08048f16 <initialize_bomb>:
 8048f16:	56                   	push   %esi
 8048f17:	53                   	push   %ebx
 8048f18:	81 ec 54 20 00 00    	sub    $0x2054,%esp
 8048f1e:	c7 44 24 04 10 8e 04 	movl   $0x8048e10,0x4(%esp)
 8048f25:	08 
 8048f26:	c7 04 24 02 00 00 00 	movl   $0x2,(%esp)
 8048f2d:	e8 0e f8 ff ff       	call   8048740 <signal@plt>
 8048f32:	c7 44 24 04 40 00 00 	movl   $0x40,0x4(%esp)
 8048f39:	00 
 8048f3a:	8d 84 24 10 20 00 00 	lea    0x2010(%esp),%eax
 8048f41:	89 04 24             	mov    %eax,(%esp)
 8048f44:	e8 47 f8 ff ff       	call   8048790 <gethostname@plt>
 8048f49:	85 c0                	test   %eax,%eax
 8048f4b:	75 17                	jne    8048f64 <initialize_bomb+0x4e>
 8048f4d:	a1 20 c5 04 08       	mov    0x804c520,%eax
 8048f52:	bb 00 00 00 00       	mov    $0x0,%ebx
 8048f57:	8d b4 24 10 20 00 00 	lea    0x2010(%esp),%esi
 8048f5e:	85 c0                	test   %eax,%eax
 8048f60:	75 1a                	jne    8048f7c <initialize_bomb+0x66>
 8048f62:	eb 58                	jmp    8048fbc <initialize_bomb+0xa6>
 8048f64:	c7 04 24 d8 a1 04 08 	movl   $0x804a1d8,(%esp)
 8048f6b:	e8 40 f8 ff ff       	call   80487b0 <puts@plt>
 8048f70:	c7 04 24 08 00 00 00 	movl   $0x8,(%esp)
 8048f77:	e8 44 f8 ff ff       	call   80487c0 <exit@plt>
 8048f7c:	89 74 24 04          	mov    %esi,0x4(%esp)
 8048f80:	89 04 24             	mov    %eax,(%esp)
 8048f83:	e8 78 f8 ff ff       	call   8048800 <strcasecmp@plt>
 8048f88:	85 c0                	test   %eax,%eax
 8048f8a:	74 48                	je     8048fd4 <initialize_bomb+0xbe>
 8048f8c:	83 c3 01             	add    $0x1,%ebx
 8048f8f:	8b 04 9d 20 c5 04 08 	mov    0x804c520(,%ebx,4),%eax
 8048f96:	85 c0                	test   %eax,%eax
 8048f98:	75 e2                	jne    8048f7c <initialize_bomb+0x66>
 8048f9a:	eb 20                	jmp    8048fbc <initialize_bomb+0xa6>
 8048f9c:	8d 44 24 10          	lea    0x10(%esp),%eax
 8048fa0:	89 44 24 04          	mov    %eax,0x4(%esp)
 8048fa4:	c7 04 24 1e a3 04 08 	movl   $0x804a31e,(%esp)
 8048fab:	e8 50 f7 ff ff       	call   8048700 <printf@plt>
 8048fb0:	c7 04 24 08 00 00 00 	movl   $0x8,(%esp)
 8048fb7:	e8 04 f8 ff ff       	call   80487c0 <exit@plt>
 8048fbc:	c7 04 24 10 a2 04 08 	movl   $0x804a210,(%esp)
 8048fc3:	e8 e8 f7 ff ff       	call   80487b0 <puts@plt>
 8048fc8:	c7 04 24 08 00 00 00 	movl   $0x8,(%esp)
 8048fcf:	e8 ec f7 ff ff       	call   80487c0 <exit@plt>
 8048fd4:	8d 44 24 10          	lea    0x10(%esp),%eax
 8048fd8:	89 04 24             	mov    %eax,(%esp)
 8048fdb:	e8 ba 0c 00 00       	call   8049c9a <init_driver>
 8048fe0:	85 c0                	test   %eax,%eax
 8048fe2:	78 b8                	js     8048f9c <initialize_bomb+0x86>
 8048fe4:	81 c4 54 20 00 00    	add    $0x2054,%esp
 8048fea:	5b                   	pop    %ebx
 8048feb:	5e                   	pop    %esi
 8048fec:	c3                   	ret    

08048fed <initialize_bomb_solve>:
 8048fed:	f3 c3                	repz ret 

08048fef <blank_line>:
 8048fef:	56                   	push   %esi
 8048ff0:	53                   	push   %ebx
 8048ff1:	83 ec 04             	sub    $0x4,%esp
 8048ff4:	8b 5c 24 10          	mov    0x10(%esp),%ebx
 8048ff8:	eb 16                	jmp    8049010 <blank_line+0x21>
 8048ffa:	e8 91 f8 ff ff       	call   8048890 <__ctype_b_loc@plt>
 8048fff:	83 c3 01             	add    $0x1,%ebx
 8049002:	89 f2                	mov    %esi,%edx
 8049004:	0f be f2             	movsbl %dl,%esi
 8049007:	8b 00                	mov    (%eax),%eax
 8049009:	f6 44 70 01 20       	testb  $0x20,0x1(%eax,%esi,2)
 804900e:	74 10                	je     8049020 <blank_line+0x31>
 8049010:	0f b6 33             	movzbl (%ebx),%esi
 8049013:	89 f0                	mov    %esi,%eax
 8049015:	84 c0                	test   %al,%al
 8049017:	75 e1                	jne    8048ffa <blank_line+0xb>
 8049019:	b8 01 00 00 00       	mov    $0x1,%eax
 804901e:	eb 05                	jmp    8049025 <blank_line+0x36>
 8049020:	b8 00 00 00 00       	mov    $0x0,%eax
 8049025:	83 c4 04             	add    $0x4,%esp
 8049028:	5b                   	pop    %ebx
 8049029:	5e                   	pop    %esi
 804902a:	c3                   	ret    

0804902b <skip>:
 804902b:	53                   	push   %ebx
 804902c:	83 ec 18             	sub    $0x18,%esp
 804902f:	a1 4c c7 04 08       	mov    0x804c74c,%eax
 8049034:	89 44 24 08          	mov    %eax,0x8(%esp)
 8049038:	c7 44 24 04 50 00 00 	movl   $0x50,0x4(%esp)
 804903f:	00 
 8049040:	a1 48 c7 04 08       	mov    0x804c748,%eax
 8049045:	8d 04 80             	lea    (%eax,%eax,4),%eax
 8049048:	c1 e0 04             	shl    $0x4,%eax
 804904b:	05 60 c7 04 08       	add    $0x804c760,%eax
 8049050:	89 04 24             	mov    %eax,(%esp)
 8049053:	e8 d8 f6 ff ff       	call   8048730 <fgets@plt>
 8049058:	89 c3                	mov    %eax,%ebx
 804905a:	85 c0                	test   %eax,%eax
 804905c:	74 0c                	je     804906a <skip+0x3f>
 804905e:	89 04 24             	mov    %eax,(%esp)
 8049061:	e8 89 ff ff ff       	call   8048fef <blank_line>
 8049066:	85 c0                	test   %eax,%eax
 8049068:	75 c5                	jne    804902f <skip+0x4>
 804906a:	89 d8                	mov    %ebx,%eax
 804906c:	83 c4 18             	add    $0x18,%esp
 804906f:	5b                   	pop    %ebx
 8049070:	c3                   	ret    

08049071 <send_msg>:
 8049071:	57                   	push   %edi
 8049072:	53                   	push   %ebx
 8049073:	81 ec 24 40 00 00    	sub    $0x4024,%esp
 8049079:	8b 15 48 c7 04 08    	mov    0x804c748,%edx
 804907f:	8d 5c 92 fb          	lea    -0x5(%edx,%edx,4),%ebx
 8049083:	c1 e3 04             	shl    $0x4,%ebx
 8049086:	81 c3 60 c7 04 08    	add    $0x804c760,%ebx
 804908c:	89 df                	mov    %ebx,%edi
 804908e:	b8 00 00 00 00       	mov    $0x0,%eax
 8049093:	b9 ff ff ff ff       	mov    $0xffffffff,%ecx
 8049098:	f2 ae                	repnz scas %es:(%edi),%al
 804909a:	f7 d1                	not    %ecx
 804909c:	83 c1 63             	add    $0x63,%ecx
 804909f:	81 f9 00 20 00 00    	cmp    $0x2000,%ecx
 80490a5:	76 18                	jbe    80490bf <send_msg+0x4e>
 80490a7:	c7 04 24 48 a2 04 08 	movl   $0x804a248,(%esp)
 80490ae:	e8 4d f6 ff ff       	call   8048700 <printf@plt>
 80490b3:	c7 04 24 08 00 00 00 	movl   $0x8,(%esp)
 80490ba:	e8 01 f7 ff ff       	call   80487c0 <exit@plt>
 80490bf:	83 bc 24 30 40 00 00 	cmpl   $0x0,0x4030(%esp)
 80490c6:	00 
 80490c7:	b8 38 a3 04 08       	mov    $0x804a338,%eax
 80490cc:	b9 40 a3 04 08       	mov    $0x804a340,%ecx
 80490d1:	0f 44 c1             	cmove  %ecx,%eax
 80490d4:	89 5c 24 14          	mov    %ebx,0x14(%esp)
 80490d8:	89 54 24 10          	mov    %edx,0x10(%esp)
 80490dc:	89 44 24 0c          	mov    %eax,0xc(%esp)
 80490e0:	a1 00 c5 04 08       	mov    0x804c500,%eax
 80490e5:	89 44 24 08          	mov    %eax,0x8(%esp)
 80490e9:	c7 44 24 04 49 a3 04 	movl   $0x804a349,0x4(%esp)
 80490f0:	08 
 80490f1:	8d 9c 24 20 20 00 00 	lea    0x2020(%esp),%ebx
 80490f8:	89 1c 24             	mov    %ebx,(%esp)
 80490fb:	e8 40 f7 ff ff       	call   8048840 <sprintf@plt>
 8049100:	8d 44 24 20          	lea    0x20(%esp),%eax
 8049104:	89 44 24 0c          	mov    %eax,0xc(%esp)
 8049108:	c7 44 24 08 00 00 00 	movl   $0x0,0x8(%esp)
 804910f:	00 
 8049110:	89 5c 24 04          	mov    %ebx,0x4(%esp)
 8049114:	c7 04 24 00 c1 04 08 	movl   $0x804c100,(%esp)
 804911b:	e8 52 0d 00 00       	call   8049e72 <driver_post>
 8049120:	85 c0                	test   %eax,%eax
 8049122:	79 18                	jns    804913c <send_msg+0xcb>
 8049124:	8d 44 24 20          	lea    0x20(%esp),%eax
 8049128:	89 04 24             	mov    %eax,(%esp)
 804912b:	e8 80 f6 ff ff       	call   80487b0 <puts@plt>
 8049130:	c7 04 24 00 00 00 00 	movl   $0x0,(%esp)
 8049137:	e8 84 f6 ff ff       	call   80487c0 <exit@plt>
 804913c:	81 c4 24 40 00 00    	add    $0x4024,%esp
 8049142:	5b                   	pop    %ebx
 8049143:	5f                   	pop    %edi
 8049144:	c3                   	ret    

08049145 <explode_bomb>:
 8049145:	83 ec 1c             	sub    $0x1c,%esp
 8049148:	c7 04 24 55 a3 04 08 	movl   $0x804a355,(%esp)
 804914f:	e8 5c f6 ff ff       	call   80487b0 <puts@plt>
 8049154:	c7 04 24 5e a3 04 08 	movl   $0x804a35e,(%esp)
 804915b:	e8 50 f6 ff ff       	call   80487b0 <puts@plt>
 8049160:	c7 04 24 00 00 00 00 	movl   $0x0,(%esp)
 8049167:	e8 05 ff ff ff       	call   8049071 <send_msg>
 804916c:	c7 04 24 6c a2 04 08 	movl   $0x804a26c,(%esp)
 8049173:	e8 38 f6 ff ff       	call   80487b0 <puts@plt>
 8049178:	c7 04 24 08 00 00 00 	movl   $0x8,(%esp)
 804917f:	e8 3c f6 ff ff       	call   80487c0 <exit@plt>

08049184 <read_six_numbers>:
 8049184:	83 ec 2c             	sub    $0x2c,%esp
 8049187:	8b 44 24 34          	mov    0x34(%esp),%eax
 804918b:	8d 50 14             	lea    0x14(%eax),%edx
 804918e:	89 54 24 1c          	mov    %edx,0x1c(%esp)
 8049192:	8d 50 10             	lea    0x10(%eax),%edx
 8049195:	89 54 24 18          	mov    %edx,0x18(%esp)
 8049199:	8d 50 0c             	lea    0xc(%eax),%edx
 804919c:	89 54 24 14          	mov    %edx,0x14(%esp)
 80491a0:	8d 50 08             	lea    0x8(%eax),%edx
 80491a3:	89 54 24 10          	mov    %edx,0x10(%esp)
 80491a7:	8d 50 04             	lea    0x4(%eax),%edx
 80491aa:	89 54 24 0c          	mov    %edx,0xc(%esp)
 80491ae:	89 44 24 08          	mov    %eax,0x8(%esp)
 80491b2:	c7 44 24 04 75 a3 04 	movl   $0x804a375,0x4(%esp)
 80491b9:	08 
 80491ba:	8b 44 24 30          	mov    0x30(%esp),%eax
 80491be:	89 04 24             	mov    %eax,(%esp)
 80491c1:	e8 4a f6 ff ff       	call   8048810 <__isoc99_sscanf@plt>
 80491c6:	83 f8 05             	cmp    $0x5,%eax
 80491c9:	7f 05                	jg     80491d0 <read_six_numbers+0x4c>
 80491cb:	e8 75 ff ff ff       	call   8049145 <explode_bomb>
 80491d0:	83 c4 2c             	add    $0x2c,%esp
 80491d3:	c3                   	ret    

080491d4 <read_line>:
 80491d4:	57                   	push   %edi
 80491d5:	56                   	push   %esi
 80491d6:	53                   	push   %ebx
 80491d7:	83 ec 10             	sub    $0x10,%esp
 80491da:	e8 4c fe ff ff       	call   804902b <skip>
 80491df:	85 c0                	test   %eax,%eax
 80491e1:	75 6c                	jne    804924f <read_line+0x7b>
 80491e3:	a1 24 c7 04 08       	mov    0x804c724,%eax
 80491e8:	39 05 4c c7 04 08    	cmp    %eax,0x804c74c
 80491ee:	75 18                	jne    8049208 <read_line+0x34>
 80491f0:	c7 04 24 87 a3 04 08 	movl   $0x804a387,(%esp)
 80491f7:	e8 b4 f5 ff ff       	call   80487b0 <puts@plt>
 80491fc:	c7 04 24 08 00 00 00 	movl   $0x8,(%esp)
 8049203:	e8 b8 f5 ff ff       	call   80487c0 <exit@plt>
 8049208:	c7 04 24 a5 a3 04 08 	movl   $0x804a3a5,(%esp)
 804920f:	e8 8c f5 ff ff       	call   80487a0 <getenv@plt>
 8049214:	85 c0                	test   %eax,%eax
 8049216:	74 0c                	je     8049224 <read_line+0x50>
 8049218:	c7 04 24 00 00 00 00 	movl   $0x0,(%esp)
 804921f:	e8 9c f5 ff ff       	call   80487c0 <exit@plt>
 8049224:	a1 24 c7 04 08       	mov    0x804c724,%eax
 8049229:	a3 4c c7 04 08       	mov    %eax,0x804c74c
 804922e:	e8 f8 fd ff ff       	call   804902b <skip>
 8049233:	85 c0                	test   %eax,%eax
 8049235:	75 18                	jne    804924f <read_line+0x7b>
 8049237:	c7 04 24 87 a3 04 08 	movl   $0x804a387,(%esp)
 804923e:	e8 6d f5 ff ff       	call   80487b0 <puts@plt>
 8049243:	c7 04 24 00 00 00 00 	movl   $0x0,(%esp)
 804924a:	e8 71 f5 ff ff       	call   80487c0 <exit@plt>
 804924f:	8b 15 48 c7 04 08    	mov    0x804c748,%edx
 8049255:	8d 1c 92             	lea    (%edx,%edx,4),%ebx
 8049258:	c1 e3 04             	shl    $0x4,%ebx
 804925b:	81 c3 60 c7 04 08    	add    $0x804c760,%ebx
 8049261:	89 df                	mov    %ebx,%edi
 8049263:	b8 00 00 00 00       	mov    $0x0,%eax
 8049268:	b9 ff ff ff ff       	mov    $0xffffffff,%ecx
 804926d:	f2 ae                	repnz scas %es:(%edi),%al
 804926f:	f7 d1                	not    %ecx
 8049271:	83 e9 01             	sub    $0x1,%ecx
 8049274:	83 f9 4e             	cmp    $0x4e,%ecx
 8049277:	7e 6f                	jle    80492e8 <read_line+0x114>
 8049279:	c7 04 24 b0 a3 04 08 	movl   $0x804a3b0,(%esp)
 8049280:	e8 2b f5 ff ff       	call   80487b0 <puts@plt>
 8049285:	a1 48 c7 04 08       	mov    0x804c748,%eax
 804928a:	8d 50 01             	lea    0x1(%eax),%edx
 804928d:	89 15 48 c7 04 08    	mov    %edx,0x804c748
 8049293:	6b c0 50             	imul   $0x50,%eax,%eax
 8049296:	8d 90 60 c7 04 08    	lea    0x804c760(%eax),%edx
 804929c:	89 d7                	mov    %edx,%edi
 804929e:	be cb a3 04 08       	mov    $0x804a3cb,%esi
 80492a3:	b8 10 00 00 00       	mov    $0x10,%eax
 80492a8:	f6 c2 01             	test   $0x1,%dl
 80492ab:	74 03                	je     80492b0 <read_line+0xdc>
 80492ad:	a4                   	movsb  %ds:(%esi),%es:(%edi)
 80492ae:	b0 0f                	mov    $0xf,%al
 80492b0:	f7 c7 02 00 00 00    	test   $0x2,%edi
 80492b6:	74 05                	je     80492bd <read_line+0xe9>
 80492b8:	66 a5                	movsw  %ds:(%esi),%es:(%edi)
 80492ba:	83 e8 02             	sub    $0x2,%eax
 80492bd:	89 c1                	mov    %eax,%ecx
 80492bf:	c1 e9 02             	shr    $0x2,%ecx
 80492c2:	f3 a5                	rep movsl %ds:(%esi),%es:(%edi)
 80492c4:	ba 00 00 00 00       	mov    $0x0,%edx
 80492c9:	a8 02                	test   $0x2,%al
 80492cb:	74 0b                	je     80492d8 <read_line+0x104>
 80492cd:	0f b7 16             	movzwl (%esi),%edx
 80492d0:	66 89 17             	mov    %dx,(%edi)
 80492d3:	ba 02 00 00 00       	mov    $0x2,%edx
 80492d8:	a8 01                	test   $0x1,%al
 80492da:	74 07                	je     80492e3 <read_line+0x10f>
 80492dc:	0f b6 04 16          	movzbl (%esi,%edx,1),%eax
 80492e0:	88 04 17             	mov    %al,(%edi,%edx,1)
 80492e3:	e8 5d fe ff ff       	call   8049145 <explode_bomb>
 80492e8:	8d 04 92             	lea    (%edx,%edx,4),%eax
 80492eb:	c1 e0 04             	shl    $0x4,%eax
 80492ee:	c6 84 01 5f c7 04 08 	movb   $0x0,0x804c75f(%ecx,%eax,1)
 80492f5:	00 
 80492f6:	83 c2 01             	add    $0x1,%edx
 80492f9:	89 15 48 c7 04 08    	mov    %edx,0x804c748
 80492ff:	89 d8                	mov    %ebx,%eax
 8049301:	83 c4 10             	add    $0x10,%esp
 8049304:	5b                   	pop    %ebx
 8049305:	5e                   	pop    %esi
 8049306:	5f                   	pop    %edi
 8049307:	c3                   	ret    

08049308 <phase_defused>:
 8049308:	83 ec 1c             	sub    $0x1c,%esp
 804930b:	c7 04 24 01 00 00 00 	movl   $0x1,(%esp)
 8049312:	e8 5a fd ff ff       	call   8049071 <send_msg>
 8049317:	83 3d 48 c7 04 08 09 	cmpl   $0x9,0x804c748
 804931e:	75 18                	jne    8049338 <phase_defused+0x30>
 8049320:	c7 04 24 90 a2 04 08 	movl   $0x804a290,(%esp)
 8049327:	e8 84 f4 ff ff       	call   80487b0 <puts@plt>
 804932c:	c7 04 24 bc a2 04 08 	movl   $0x804a2bc,(%esp)
 8049333:	e8 78 f4 ff ff       	call   80487b0 <puts@plt>
 8049338:	83 c4 1c             	add    $0x1c,%esp
 804933b:	c3                   	ret    
 804933c:	66 90                	xchg   %ax,%ax
 804933e:	66 90                	xchg   %ax,%ax

08049340 <sigalrm_handler>:
 8049340:	83 ec 1c             	sub    $0x1c,%esp
 8049343:	c7 44 24 08 00 00 00 	movl   $0x0,0x8(%esp)
 804934a:	00 
 804934b:	c7 44 24 04 88 a7 04 	movl   $0x804a788,0x4(%esp)
 8049352:	08 
 8049353:	a1 20 c7 04 08       	mov    0x804c720,%eax
 8049358:	89 04 24             	mov    %eax,(%esp)
 804935b:	e8 80 f4 ff ff       	call   80487e0 <fprintf@plt>
 8049360:	c7 04 24 01 00 00 00 	movl   $0x1,(%esp)
 8049367:	e8 54 f4 ff ff       	call   80487c0 <exit@plt>

0804936c <rio_readlineb>:
 804936c:	55                   	push   %ebp
 804936d:	57                   	push   %edi
 804936e:	56                   	push   %esi
 804936f:	53                   	push   %ebx
 8049370:	83 ec 3c             	sub    $0x3c,%esp
 8049373:	89 d5                	mov    %edx,%ebp
 8049375:	83 f9 01             	cmp    $0x1,%ecx
 8049378:	0f 86 c6 00 00 00    	jbe    8049444 <rio_readlineb+0xd8>
 804937e:	89 c3                	mov    %eax,%ebx
 8049380:	89 4c 24 1c          	mov    %ecx,0x1c(%esp)
 8049384:	c7 44 24 10 01 00 00 	movl   $0x1,0x10(%esp)
 804938b:	00 
 804938c:	8d 78 0c             	lea    0xc(%eax),%edi
 804938f:	eb 34                	jmp    80493c5 <rio_readlineb+0x59>
 8049391:	c7 44 24 08 00 20 00 	movl   $0x2000,0x8(%esp)
 8049398:	00 
 8049399:	89 7c 24 04          	mov    %edi,0x4(%esp)
 804939d:	8b 03                	mov    (%ebx),%eax
 804939f:	89 04 24             	mov    %eax,(%esp)
 80493a2:	e8 49 f3 ff ff       	call   80486f0 <read@plt>
 80493a7:	89 43 04             	mov    %eax,0x4(%ebx)
 80493aa:	85 c0                	test   %eax,%eax
 80493ac:	79 0f                	jns    80493bd <rio_readlineb+0x51>
 80493ae:	e8 7d f4 ff ff       	call   8048830 <__errno_location@plt>
 80493b3:	83 38 04             	cmpl   $0x4,(%eax)
 80493b6:	74 0d                	je     80493c5 <rio_readlineb+0x59>
 80493b8:	e9 99 00 00 00       	jmp    8049456 <rio_readlineb+0xea>
 80493bd:	85 c0                	test   %eax,%eax
 80493bf:	90                   	nop
 80493c0:	74 66                	je     8049428 <rio_readlineb+0xbc>
 80493c2:	89 7b 08             	mov    %edi,0x8(%ebx)
 80493c5:	8b 73 04             	mov    0x4(%ebx),%esi
 80493c8:	85 f6                	test   %esi,%esi
 80493ca:	7e c5                	jle    8049391 <rio_readlineb+0x25>
 80493cc:	85 f6                	test   %esi,%esi
 80493ce:	0f 95 c0             	setne  %al
 80493d1:	0f b6 c0             	movzbl %al,%eax
 80493d4:	89 44 24 14          	mov    %eax,0x14(%esp)
 80493d8:	8b 4b 08             	mov    0x8(%ebx),%ecx
 80493db:	89 44 24 08          	mov    %eax,0x8(%esp)
 80493df:	89 4c 24 18          	mov    %ecx,0x18(%esp)
 80493e3:	89 4c 24 04          	mov    %ecx,0x4(%esp)
 80493e7:	8d 54 24 2f          	lea    0x2f(%esp),%edx
 80493eb:	89 14 24             	mov    %edx,(%esp)
 80493ee:	e8 2d f3 ff ff       	call   8048720 <memcpy@plt>
 80493f3:	8b 4c 24 18          	mov    0x18(%esp),%ecx
 80493f7:	8b 54 24 14          	mov    0x14(%esp),%edx
 80493fb:	01 d1                	add    %edx,%ecx
 80493fd:	89 4b 08             	mov    %ecx,0x8(%ebx)
 8049400:	29 d6                	sub    %edx,%esi
 8049402:	89 73 04             	mov    %esi,0x4(%ebx)
 8049405:	83 fa 01             	cmp    $0x1,%edx
 8049408:	75 11                	jne    804941b <rio_readlineb+0xaf>
 804940a:	83 c5 01             	add    $0x1,%ebp
 804940d:	0f b6 44 24 2f       	movzbl 0x2f(%esp),%eax
 8049412:	88 45 ff             	mov    %al,-0x1(%ebp)
 8049415:	3c 0a                	cmp    $0xa,%al
 8049417:	75 1a                	jne    8049433 <rio_readlineb+0xc7>
 8049419:	eb 31                	jmp    804944c <rio_readlineb+0xe0>
 804941b:	83 7c 24 14 00       	cmpl   $0x0,0x14(%esp)
 8049420:	75 3b                	jne    804945d <rio_readlineb+0xf1>
 8049422:	8b 44 24 10          	mov    0x10(%esp),%eax
 8049426:	eb 04                	jmp    804942c <rio_readlineb+0xc0>
 8049428:	8b 44 24 10          	mov    0x10(%esp),%eax
 804942c:	83 f8 01             	cmp    $0x1,%eax
 804942f:	75 1b                	jne    804944c <rio_readlineb+0xe0>
 8049431:	eb 31                	jmp    8049464 <rio_readlineb+0xf8>
 8049433:	83 44 24 10 01       	addl   $0x1,0x10(%esp)
 8049438:	8b 44 24 1c          	mov    0x1c(%esp),%eax
 804943c:	39 44 24 10          	cmp    %eax,0x10(%esp)
 8049440:	74 0a                	je     804944c <rio_readlineb+0xe0>
 8049442:	eb 81                	jmp    80493c5 <rio_readlineb+0x59>
 8049444:	c7 44 24 10 01 00 00 	movl   $0x1,0x10(%esp)
 804944b:	00 
 804944c:	c6 45 00 00          	movb   $0x0,0x0(%ebp)
 8049450:	8b 44 24 10          	mov    0x10(%esp),%eax
 8049454:	eb 13                	jmp    8049469 <rio_readlineb+0xfd>
 8049456:	b8 ff ff ff ff       	mov    $0xffffffff,%eax
 804945b:	eb 0c                	jmp    8049469 <rio_readlineb+0xfd>
 804945d:	b8 ff ff ff ff       	mov    $0xffffffff,%eax
 8049462:	eb 05                	jmp    8049469 <rio_readlineb+0xfd>
 8049464:	b8 00 00 00 00       	mov    $0x0,%eax
 8049469:	83 c4 3c             	add    $0x3c,%esp
 804946c:	5b                   	pop    %ebx
 804946d:	5e                   	pop    %esi
 804946e:	5f                   	pop    %edi
 804946f:	5d                   	pop    %ebp
 8049470:	c3                   	ret    

08049471 <submitr>:
 8049471:	55                   	push   %ebp
 8049472:	57                   	push   %edi
 8049473:	56                   	push   %esi
 8049474:	53                   	push   %ebx
 8049475:	81 ec 5c a0 00 00    	sub    $0xa05c,%esp
 804947b:	8b 9c 24 84 a0 00 00 	mov    0xa084(%esp),%ebx
 8049482:	c7 84 24 30 20 00 00 	movl   $0x0,0x2030(%esp)
 8049489:	00 00 00 00 
 804948d:	c7 44 24 08 00 00 00 	movl   $0x0,0x8(%esp)
 8049494:	00 
 8049495:	c7 44 24 04 01 00 00 	movl   $0x1,0x4(%esp)
 804949c:	00 
 804949d:	c7 04 24 02 00 00 00 	movl   $0x2,(%esp)
 80494a4:	e8 a7 f3 ff ff       	call   8048850 <socket@plt>
 80494a9:	89 c5                	mov    %eax,%ebp
 80494ab:	85 c0                	test   %eax,%eax
 80494ad:	79 55                	jns    8049504 <submitr+0x93>
 80494af:	8b 84 24 88 a0 00 00 	mov    0xa088(%esp),%eax
 80494b6:	c7 00 45 72 72 6f    	movl   $0x6f727245,(%eax)
 80494bc:	c7 40 04 72 3a 20 43 	movl   $0x43203a72,0x4(%eax)
 80494c3:	c7 40 08 6c 69 65 6e 	movl   $0x6e65696c,0x8(%eax)
 80494ca:	c7 40 0c 74 20 75 6e 	movl   $0x6e752074,0xc(%eax)
 80494d1:	c7 40 10 61 62 6c 65 	movl   $0x656c6261,0x10(%eax)
 80494d8:	c7 40 14 20 74 6f 20 	movl   $0x206f7420,0x14(%eax)
 80494df:	c7 40 18 63 72 65 61 	movl   $0x61657263,0x18(%eax)
 80494e6:	c7 40 1c 74 65 20 73 	movl   $0x73206574,0x1c(%eax)
 80494ed:	c7 40 20 6f 63 6b 65 	movl   $0x656b636f,0x20(%eax)
 80494f4:	66 c7 40 24 74 00    	movw   $0x74,0x24(%eax)
 80494fa:	b8 ff ff ff ff       	mov    $0xffffffff,%eax
 80494ff:	e9 54 07 00 00       	jmp    8049c58 <submitr+0x7e7>
 8049504:	8b 84 24 70 a0 00 00 	mov    0xa070(%esp),%eax
 804950b:	89 04 24             	mov    %eax,(%esp)
 804950e:	e8 4d f3 ff ff       	call   8048860 <gethostbyname@plt>
 8049513:	85 c0                	test   %eax,%eax
 8049515:	75 6f                	jne    8049586 <submitr+0x115>
 8049517:	8b 84 24 88 a0 00 00 	mov    0xa088(%esp),%eax
 804951e:	c7 00 45 72 72 6f    	movl   $0x6f727245,(%eax)
 8049524:	c7 40 04 72 3a 20 44 	movl   $0x44203a72,0x4(%eax)
 804952b:	c7 40 08 4e 53 20 69 	movl   $0x6920534e,0x8(%eax)
 8049532:	c7 40 0c 73 20 75 6e 	movl   $0x6e752073,0xc(%eax)
 8049539:	c7 40 10 61 62 6c 65 	movl   $0x656c6261,0x10(%eax)
 8049540:	c7 40 14 20 74 6f 20 	movl   $0x206f7420,0x14(%eax)
 8049547:	c7 40 18 72 65 73 6f 	movl   $0x6f736572,0x18(%eax)
 804954e:	c7 40 1c 6c 76 65 20 	movl   $0x2065766c,0x1c(%eax)
 8049555:	c7 40 20 73 65 72 76 	movl   $0x76726573,0x20(%eax)
 804955c:	c7 40 24 65 72 20 61 	movl   $0x61207265,0x24(%eax)
 8049563:	c7 40 28 64 64 72 65 	movl   $0x65726464,0x28(%eax)
 804956a:	66 c7 40 2c 73 73    	movw   $0x7373,0x2c(%eax)
 8049570:	c6 40 2e 00          	movb   $0x0,0x2e(%eax)
 8049574:	89 2c 24             	mov    %ebp,(%esp)
 8049577:	e8 04 f3 ff ff       	call   8048880 <close@plt>
 804957c:	b8 ff ff ff ff       	mov    $0xffffffff,%eax
 8049581:	e9 d2 06 00 00       	jmp    8049c58 <submitr+0x7e7>
 8049586:	8d b4 24 40 a0 00 00 	lea    0xa040(%esp),%esi
 804958d:	c7 84 24 40 a0 00 00 	movl   $0x0,0xa040(%esp)
 8049594:	00 00 00 00 
 8049598:	c7 84 24 44 a0 00 00 	movl   $0x0,0xa044(%esp)
 804959f:	00 00 00 00 
 80495a3:	c7 84 24 48 a0 00 00 	movl   $0x0,0xa048(%esp)
 80495aa:	00 00 00 00 
 80495ae:	c7 84 24 4c a0 00 00 	movl   $0x0,0xa04c(%esp)
 80495b5:	00 00 00 00 
 80495b9:	66 c7 84 24 40 a0 00 	movw   $0x2,0xa040(%esp)
 80495c0:	00 02 00 
 80495c3:	8b 50 0c             	mov    0xc(%eax),%edx
 80495c6:	89 54 24 08          	mov    %edx,0x8(%esp)
 80495ca:	8d 94 24 44 a0 00 00 	lea    0xa044(%esp),%edx
 80495d1:	89 54 24 04          	mov    %edx,0x4(%esp)
 80495d5:	8b 40 10             	mov    0x10(%eax),%eax
 80495d8:	8b 00                	mov    (%eax),%eax
 80495da:	89 04 24             	mov    %eax,(%esp)
 80495dd:	e8 8e f1 ff ff       	call   8048770 <bcopy@plt>
 80495e2:	0f b7 84 24 74 a0 00 	movzwl 0xa074(%esp),%eax
 80495e9:	00 
 80495ea:	66 c1 c8 08          	ror    $0x8,%ax
 80495ee:	66 89 84 24 42 a0 00 	mov    %ax,0xa042(%esp)
 80495f5:	00 
 80495f6:	c7 44 24 08 10 00 00 	movl   $0x10,0x8(%esp)
 80495fd:	00 
 80495fe:	89 74 24 04          	mov    %esi,0x4(%esp)
 8049602:	89 2c 24             	mov    %ebp,(%esp)
 8049605:	e8 66 f2 ff ff       	call   8048870 <connect@plt>
 804960a:	85 c0                	test   %eax,%eax
 804960c:	79 61                	jns    804966f <submitr+0x1fe>
 804960e:	8b 84 24 88 a0 00 00 	mov    0xa088(%esp),%eax
 8049615:	c7 00 45 72 72 6f    	movl   $0x6f727245,(%eax)
 804961b:	c7 40 04 72 3a 20 55 	movl   $0x55203a72,0x4(%eax)
 8049622:	c7 40 08 6e 61 62 6c 	movl   $0x6c62616e,0x8(%eax)
 8049629:	c7 40 0c 65 20 74 6f 	movl   $0x6f742065,0xc(%eax)
 8049630:	c7 40 10 20 63 6f 6e 	movl   $0x6e6f6320,0x10(%eax)
 8049637:	c7 40 14 6e 65 63 74 	movl   $0x7463656e,0x14(%eax)
 804963e:	c7 40 18 20 74 6f 20 	movl   $0x206f7420,0x18(%eax)
 8049645:	c7 40 1c 74 68 65 20 	movl   $0x20656874,0x1c(%eax)
 804964c:	c7 40 20 73 65 72 76 	movl   $0x76726573,0x20(%eax)
 8049653:	66 c7 40 24 65 72    	movw   $0x7265,0x24(%eax)
 8049659:	c6 40 26 00          	movb   $0x0,0x26(%eax)
 804965d:	89 2c 24             	mov    %ebp,(%esp)
 8049660:	e8 1b f2 ff ff       	call   8048880 <close@plt>
 8049665:	b8 ff ff ff ff       	mov    $0xffffffff,%eax
 804966a:	e9 e9 05 00 00       	jmp    8049c58 <submitr+0x7e7>
 804966f:	ba ff ff ff ff       	mov    $0xffffffff,%edx
 8049674:	89 df                	mov    %ebx,%edi
 8049676:	b8 00 00 00 00       	mov    $0x0,%eax
 804967b:	89 d1                	mov    %edx,%ecx
 804967d:	f2 ae                	repnz scas %es:(%edi),%al
 804967f:	f7 d1                	not    %ecx
 8049681:	89 ce                	mov    %ecx,%esi
 8049683:	8b bc 24 78 a0 00 00 	mov    0xa078(%esp),%edi
 804968a:	89 d1                	mov    %edx,%ecx
 804968c:	f2 ae                	repnz scas %es:(%edi),%al
 804968e:	89 4c 24 18          	mov    %ecx,0x18(%esp)
 8049692:	8b bc 24 7c a0 00 00 	mov    0xa07c(%esp),%edi
 8049699:	89 d1                	mov    %edx,%ecx
 804969b:	f2 ae                	repnz scas %es:(%edi),%al
 804969d:	f7 d1                	not    %ecx
 804969f:	89 4c 24 1c          	mov    %ecx,0x1c(%esp)
 80496a3:	8b bc 24 80 a0 00 00 	mov    0xa080(%esp),%edi
 80496aa:	89 d1                	mov    %edx,%ecx
 80496ac:	f2 ae                	repnz scas %es:(%edi),%al
 80496ae:	8b 44 24 1c          	mov    0x1c(%esp),%eax
 80496b2:	2b 44 24 18          	sub    0x18(%esp),%eax
 80496b6:	29 c8                	sub    %ecx,%eax
 80496b8:	89 c2                	mov    %eax,%edx
 80496ba:	8d 44 76 fd          	lea    -0x3(%esi,%esi,2),%eax
 80496be:	8d 44 02 7b          	lea    0x7b(%edx,%eax,1),%eax
 80496c2:	3d 00 20 00 00       	cmp    $0x2000,%eax
 80496c7:	76 7a                	jbe    8049743 <submitr+0x2d2>
 80496c9:	8b 84 24 88 a0 00 00 	mov    0xa088(%esp),%eax
 80496d0:	c7 00 45 72 72 6f    	movl   $0x6f727245,(%eax)
 80496d6:	c7 40 04 72 3a 20 52 	movl   $0x52203a72,0x4(%eax)
 80496dd:	c7 40 08 65 73 75 6c 	movl   $0x6c757365,0x8(%eax)
 80496e4:	c7 40 0c 74 20 73 74 	movl   $0x74732074,0xc(%eax)
 80496eb:	c7 40 10 72 69 6e 67 	movl   $0x676e6972,0x10(%eax)
 80496f2:	c7 40 14 20 74 6f 6f 	movl   $0x6f6f7420,0x14(%eax)
 80496f9:	c7 40 18 20 6c 61 72 	movl   $0x72616c20,0x18(%eax)
 8049700:	c7 40 1c 67 65 2e 20 	movl   $0x202e6567,0x1c(%eax)
 8049707:	c7 40 20 49 6e 63 72 	movl   $0x72636e49,0x20(%eax)
 804970e:	c7 40 24 65 61 73 65 	movl   $0x65736165,0x24(%eax)
 8049715:	c7 40 28 20 53 55 42 	movl   $0x42555320,0x28(%eax)
 804971c:	c7 40 2c 4d 49 54 52 	movl   $0x5254494d,0x2c(%eax)
 8049723:	c7 40 30 5f 4d 41 58 	movl   $0x58414d5f,0x30(%eax)
 804972a:	c7 40 34 42 55 46 00 	movl   $0x465542,0x34(%eax)
 8049731:	89 2c 24             	mov    %ebp,(%esp)
 8049734:	e8 47 f1 ff ff       	call   8048880 <close@plt>
 8049739:	b8 ff ff ff ff       	mov    $0xffffffff,%eax
 804973e:	e9 15 05 00 00       	jmp    8049c58 <submitr+0x7e7>
 8049743:	8d 94 24 34 40 00 00 	lea    0x4034(%esp),%edx
 804974a:	b9 00 08 00 00       	mov    $0x800,%ecx
 804974f:	b8 00 00 00 00       	mov    $0x0,%eax
 8049754:	89 d7                	mov    %edx,%edi
 8049756:	f3 ab                	rep stos %eax,%es:(%edi)
 8049758:	89 df                	mov    %ebx,%edi
 804975a:	b9 ff ff ff ff       	mov    $0xffffffff,%ecx
 804975f:	f2 ae                	repnz scas %es:(%edi),%al
 8049761:	f7 d1                	not    %ecx
 8049763:	83 e9 01             	sub    $0x1,%ecx
 8049766:	89 ce                	mov    %ecx,%esi
 8049768:	0f 84 00 04 00 00    	je     8049b6e <submitr+0x6fd>
 804976e:	89 d7                	mov    %edx,%edi
 8049770:	0f b6 03             	movzbl (%ebx),%eax
 8049773:	3c 2a                	cmp    $0x2a,%al
 8049775:	74 21                	je     8049798 <submitr+0x327>
 8049777:	8d 50 d3             	lea    -0x2d(%eax),%edx
 804977a:	80 fa 01             	cmp    $0x1,%dl
 804977d:	76 19                	jbe    8049798 <submitr+0x327>
 804977f:	3c 5f                	cmp    $0x5f,%al
 8049781:	74 15                	je     8049798 <submitr+0x327>
 8049783:	8d 50 d0             	lea    -0x30(%eax),%edx
 8049786:	80 fa 09             	cmp    $0x9,%dl
 8049789:	76 0d                	jbe    8049798 <submitr+0x327>
 804978b:	89 c2                	mov    %eax,%edx
 804978d:	83 e2 df             	and    $0xffffffdf,%edx
 8049790:	83 ea 41             	sub    $0x41,%edx
 8049793:	80 fa 19             	cmp    $0x19,%dl
 8049796:	77 07                	ja     804979f <submitr+0x32e>
 8049798:	8d 57 01             	lea    0x1(%edi),%edx
 804979b:	88 07                	mov    %al,(%edi)
 804979d:	eb 51                	jmp    80497f0 <submitr+0x37f>
 804979f:	3c 20                	cmp    $0x20,%al
 80497a1:	75 08                	jne    80497ab <submitr+0x33a>
 80497a3:	8d 57 01             	lea    0x1(%edi),%edx
 80497a6:	c6 07 2b             	movb   $0x2b,(%edi)
 80497a9:	eb 45                	jmp    80497f0 <submitr+0x37f>
 80497ab:	8d 50 e0             	lea    -0x20(%eax),%edx
 80497ae:	80 fa 5f             	cmp    $0x5f,%dl
 80497b1:	76 08                	jbe    80497bb <submitr+0x34a>
 80497b3:	3c 09                	cmp    $0x9,%al
 80497b5:	0f 85 1d 04 00 00    	jne    8049bd8 <submitr+0x767>
 80497bb:	0f b6 c0             	movzbl %al,%eax
 80497be:	89 44 24 08          	mov    %eax,0x8(%esp)
 80497c2:	c7 44 24 04 94 a8 04 	movl   $0x804a894,0x4(%esp)
 80497c9:	08 
 80497ca:	8d 44 24 28          	lea    0x28(%esp),%eax
 80497ce:	89 04 24             	mov    %eax,(%esp)
 80497d1:	e8 6a f0 ff ff       	call   8048840 <sprintf@plt>
 80497d6:	0f b6 44 24 28       	movzbl 0x28(%esp),%eax
 80497db:	88 07                	mov    %al,(%edi)
 80497dd:	0f b6 44 24 29       	movzbl 0x29(%esp),%eax
 80497e2:	88 47 01             	mov    %al,0x1(%edi)
 80497e5:	8d 57 03             	lea    0x3(%edi),%edx
 80497e8:	0f b6 44 24 2a       	movzbl 0x2a(%esp),%eax
 80497ed:	88 47 02             	mov    %al,0x2(%edi)
 80497f0:	83 c3 01             	add    $0x1,%ebx
 80497f3:	83 ee 01             	sub    $0x1,%esi
 80497f6:	0f 84 72 03 00 00    	je     8049b6e <submitr+0x6fd>
 80497fc:	89 d7                	mov    %edx,%edi
 80497fe:	e9 6d ff ff ff       	jmp    8049770 <submitr+0x2ff>
 8049803:	89 5c 24 08          	mov    %ebx,0x8(%esp)
 8049807:	89 74 24 04          	mov    %esi,0x4(%esp)
 804980b:	89 2c 24             	mov    %ebp,(%esp)
 804980e:	e8 dd ef ff ff       	call   80487f0 <write@plt>
 8049813:	85 c0                	test   %eax,%eax
 8049815:	7f 10                	jg     8049827 <submitr+0x3b6>
 8049817:	e8 14 f0 ff ff       	call   8048830 <__errno_location@plt>
 804981c:	83 38 04             	cmpl   $0x4,(%eax)
 804981f:	90                   	nop
 8049820:	75 0f                	jne    8049831 <submitr+0x3c0>
 8049822:	b8 00 00 00 00       	mov    $0x0,%eax
 8049827:	01 c6                	add    %eax,%esi
 8049829:	29 c3                	sub    %eax,%ebx
 804982b:	75 d6                	jne    8049803 <submitr+0x392>
 804982d:	85 ff                	test   %edi,%edi
 804982f:	79 65                	jns    8049896 <submitr+0x425>
 8049831:	8b 84 24 88 a0 00 00 	mov    0xa088(%esp),%eax
 8049838:	c7 00 45 72 72 6f    	movl   $0x6f727245,(%eax)
 804983e:	c7 40 04 72 3a 20 43 	movl   $0x43203a72,0x4(%eax)
 8049845:	c7 40 08 6c 69 65 6e 	movl   $0x6e65696c,0x8(%eax)
 804984c:	c7 40 0c 74 20 75 6e 	movl   $0x6e752074,0xc(%eax)
 8049853:	c7 40 10 61 62 6c 65 	movl   $0x656c6261,0x10(%eax)
 804985a:	c7 40 14 20 74 6f 20 	movl   $0x206f7420,0x14(%eax)
 8049861:	c7 40 18 77 72 69 74 	movl   $0x74697277,0x18(%eax)
 8049868:	c7 40 1c 65 20 74 6f 	movl   $0x6f742065,0x1c(%eax)
 804986f:	c7 40 20 20 74 68 65 	movl   $0x65687420,0x20(%eax)
 8049876:	c7 40 24 20 73 65 72 	movl   $0x72657320,0x24(%eax)
 804987d:	c7 40 28 76 65 72 00 	movl   $0x726576,0x28(%eax)
 8049884:	89 2c 24             	mov    %ebp,(%esp)
 8049887:	e8 f4 ef ff ff       	call   8048880 <close@plt>
 804988c:	b8 ff ff ff ff       	mov    $0xffffffff,%eax
 8049891:	e9 c2 03 00 00       	jmp    8049c58 <submitr+0x7e7>
 8049896:	89 ac 24 34 80 00 00 	mov    %ebp,0x8034(%esp)
 804989d:	c7 84 24 38 80 00 00 	movl   $0x0,0x8038(%esp)
 80498a4:	00 00 00 00 
 80498a8:	8d 84 24 40 80 00 00 	lea    0x8040(%esp),%eax
 80498af:	89 84 24 3c 80 00 00 	mov    %eax,0x803c(%esp)
 80498b6:	b9 00 20 00 00       	mov    $0x2000,%ecx
 80498bb:	8d 94 24 34 60 00 00 	lea    0x6034(%esp),%edx
 80498c2:	8d 84 24 34 80 00 00 	lea    0x8034(%esp),%eax
 80498c9:	e8 9e fa ff ff       	call   804936c <rio_readlineb>
 80498ce:	85 c0                	test   %eax,%eax
 80498d0:	7f 79                	jg     804994b <submitr+0x4da>
 80498d2:	8b 84 24 88 a0 00 00 	mov    0xa088(%esp),%eax
 80498d9:	c7 00 45 72 72 6f    	movl   $0x6f727245,(%eax)
 80498df:	c7 40 04 72 3a 20 43 	movl   $0x43203a72,0x4(%eax)
 80498e6:	c7 40 08 6c 69 65 6e 	movl   $0x6e65696c,0x8(%eax)
 80498ed:	c7 40 0c 74 20 75 6e 	movl   $0x6e752074,0xc(%eax)
 80498f4:	c7 40 10 61 62 6c 65 	movl   $0x656c6261,0x10(%eax)
 80498fb:	c7 40 14 20 74 6f 20 	movl   $0x206f7420,0x14(%eax)
 8049902:	c7 40 18 72 65 61 64 	movl   $0x64616572,0x18(%eax)
 8049909:	c7 40 1c 20 66 69 72 	movl   $0x72696620,0x1c(%eax)
 8049910:	c7 40 20 73 74 20 68 	movl   $0x68207473,0x20(%eax)
 8049917:	c7 40 24 65 61 64 65 	movl   $0x65646165,0x24(%eax)
 804991e:	c7 40 28 72 20 66 72 	movl   $0x72662072,0x28(%eax)
 8049925:	c7 40 2c 6f 6d 20 73 	movl   $0x73206d6f,0x2c(%eax)
 804992c:	c7 40 30 65 72 76 65 	movl   $0x65767265,0x30(%eax)
 8049933:	66 c7 40 34 72 00    	movw   $0x72,0x34(%eax)
 8049939:	89 2c 24             	mov    %ebp,(%esp)
 804993c:	e8 3f ef ff ff       	call   8048880 <close@plt>
 8049941:	b8 ff ff ff ff       	mov    $0xffffffff,%eax
 8049946:	e9 0d 03 00 00       	jmp    8049c58 <submitr+0x7e7>
 804994b:	8d 44 24 30          	lea    0x30(%esp),%eax
 804994f:	89 44 24 10          	mov    %eax,0x10(%esp)
 8049953:	8d 84 24 30 20 00 00 	lea    0x2030(%esp),%eax
 804995a:	89 44 24 0c          	mov    %eax,0xc(%esp)
 804995e:	8d 84 24 34 20 00 00 	lea    0x2034(%esp),%eax
 8049965:	89 44 24 08          	mov    %eax,0x8(%esp)
 8049969:	c7 44 24 04 9b a8 04 	movl   $0x804a89b,0x4(%esp)
 8049970:	08 
 8049971:	8d 84 24 34 60 00 00 	lea    0x6034(%esp),%eax
 8049978:	89 04 24             	mov    %eax,(%esp)
 804997b:	e8 90 ee ff ff       	call   8048810 <__isoc99_sscanf@plt>
 8049980:	8b 84 24 30 20 00 00 	mov    0x2030(%esp),%eax
 8049987:	3d c8 00 00 00       	cmp    $0xc8,%eax
 804998c:	0f 84 c1 00 00 00    	je     8049a53 <submitr+0x5e2>
 8049992:	8d 54 24 30          	lea    0x30(%esp),%edx
 8049996:	89 54 24 0c          	mov    %edx,0xc(%esp)
 804999a:	89 44 24 08          	mov    %eax,0x8(%esp)
 804999e:	c7 44 24 04 ac a7 04 	movl   $0x804a7ac,0x4(%esp)
 80499a5:	08 
 80499a6:	8b 84 24 88 a0 00 00 	mov    0xa088(%esp),%eax
 80499ad:	89 04 24             	mov    %eax,(%esp)
 80499b0:	e8 8b ee ff ff       	call   8048840 <sprintf@plt>
 80499b5:	89 2c 24             	mov    %ebp,(%esp)
 80499b8:	e8 c3 ee ff ff       	call   8048880 <close@plt>
 80499bd:	b8 ff ff ff ff       	mov    $0xffffffff,%eax
 80499c2:	e9 91 02 00 00       	jmp    8049c58 <submitr+0x7e7>
 80499c7:	b9 00 20 00 00       	mov    $0x2000,%ecx
 80499cc:	8d 94 24 34 60 00 00 	lea    0x6034(%esp),%edx
 80499d3:	8d 84 24 34 80 00 00 	lea    0x8034(%esp),%eax
 80499da:	e8 8d f9 ff ff       	call   804936c <rio_readlineb>
 80499df:	85 c0                	test   %eax,%eax
 80499e1:	7f 70                	jg     8049a53 <submitr+0x5e2>
 80499e3:	8b 84 24 88 a0 00 00 	mov    0xa088(%esp),%eax
 80499ea:	c7 00 45 72 72 6f    	movl   $0x6f727245,(%eax)
 80499f0:	c7 40 04 72 3a 20 43 	movl   $0x43203a72,0x4(%eax)
 80499f7:	c7 40 08 6c 69 65 6e 	movl   $0x6e65696c,0x8(%eax)
 80499fe:	c7 40 0c 74 20 75 6e 	movl   $0x6e752074,0xc(%eax)
 8049a05:	c7 40 10 61 62 6c 65 	movl   $0x656c6261,0x10(%eax)
 8049a0c:	c7 40 14 20 74 6f 20 	movl   $0x206f7420,0x14(%eax)
 8049a13:	c7 40 18 72 65 61 64 	movl   $0x64616572,0x18(%eax)
 8049a1a:	c7 40 1c 20 68 65 61 	movl   $0x61656820,0x1c(%eax)
 8049a21:	c7 40 20 64 65 72 73 	movl   $0x73726564,0x20(%eax)
 8049a28:	c7 40 24 20 66 72 6f 	movl   $0x6f726620,0x24(%eax)
 8049a2f:	c7 40 28 6d 20 73 65 	movl   $0x6573206d,0x28(%eax)
 8049a36:	c7 40 2c 72 76 65 72 	movl   $0x72657672,0x2c(%eax)
 8049a3d:	c6 40 30 00          	movb   $0x0,0x30(%eax)
 8049a41:	89 2c 24             	mov    %ebp,(%esp)
 8049a44:	e8 37 ee ff ff       	call   8048880 <close@plt>
 8049a49:	b8 ff ff ff ff       	mov    $0xffffffff,%eax
 8049a4e:	e9 05 02 00 00       	jmp    8049c58 <submitr+0x7e7>
 8049a53:	80 bc 24 34 60 00 00 	cmpb   $0xd,0x6034(%esp)
 8049a5a:	0d 
 8049a5b:	0f 85 66 ff ff ff    	jne    80499c7 <submitr+0x556>
 8049a61:	80 bc 24 35 60 00 00 	cmpb   $0xa,0x6035(%esp)
 8049a68:	0a 
 8049a69:	0f 85 58 ff ff ff    	jne    80499c7 <submitr+0x556>
 8049a6f:	80 bc 24 36 60 00 00 	cmpb   $0x0,0x6036(%esp)
 8049a76:	00 
 8049a77:	0f 85 4a ff ff ff    	jne    80499c7 <submitr+0x556>
 8049a7d:	b9 00 20 00 00       	mov    $0x2000,%ecx
 8049a82:	8d 94 24 34 60 00 00 	lea    0x6034(%esp),%edx
 8049a89:	8d 84 24 34 80 00 00 	lea    0x8034(%esp),%eax
 8049a90:	e8 d7 f8 ff ff       	call   804936c <rio_readlineb>
 8049a95:	85 c0                	test   %eax,%eax
 8049a97:	7f 7a                	jg     8049b13 <submitr+0x6a2>
 8049a99:	8b 84 24 88 a0 00 00 	mov    0xa088(%esp),%eax
 8049aa0:	c7 00 45 72 72 6f    	movl   $0x6f727245,(%eax)
 8049aa6:	c7 40 04 72 3a 20 43 	movl   $0x43203a72,0x4(%eax)
 8049aad:	c7 40 08 6c 69 65 6e 	movl   $0x6e65696c,0x8(%eax)
 8049ab4:	c7 40 0c 74 20 75 6e 	movl   $0x6e752074,0xc(%eax)
 8049abb:	c7 40 10 61 62 6c 65 	movl   $0x656c6261,0x10(%eax)
 8049ac2:	c7 40 14 20 74 6f 20 	movl   $0x206f7420,0x14(%eax)
 8049ac9:	c7 40 18 72 65 61 64 	movl   $0x64616572,0x18(%eax)
 8049ad0:	c7 40 1c 20 73 74 61 	movl   $0x61747320,0x1c(%eax)
 8049ad7:	c7 40 20 74 75 73 20 	movl   $0x20737574,0x20(%eax)
 8049ade:	c7 40 24 6d 65 73 73 	movl   $0x7373656d,0x24(%eax)
 8049ae5:	c7 40 28 61 67 65 20 	movl   $0x20656761,0x28(%eax)
 8049aec:	c7 40 2c 66 72 6f 6d 	movl   $0x6d6f7266,0x2c(%eax)
 8049af3:	c7 40 30 20 73 65 72 	movl   $0x72657320,0x30(%eax)
 8049afa:	c7 40 34 76 65 72 00 	movl   $0x726576,0x34(%eax)
 8049b01:	89 2c 24             	mov    %ebp,(%esp)
 8049b04:	e8 77 ed ff ff       	call   8048880 <close@plt>
 8049b09:	b8 ff ff ff ff       	mov    $0xffffffff,%eax
 8049b0e:	e9 45 01 00 00       	jmp    8049c58 <submitr+0x7e7>
 8049b13:	8d 84 24 34 60 00 00 	lea    0x6034(%esp),%eax
 8049b1a:	89 44 24 04          	mov    %eax,0x4(%esp)
 8049b1e:	8b 84 24 88 a0 00 00 	mov    0xa088(%esp),%eax
 8049b25:	89 04 24             	mov    %eax,(%esp)
 8049b28:	e8 53 ec ff ff       	call   8048780 <strcpy@plt>
 8049b2d:	89 2c 24             	mov    %ebp,(%esp)
 8049b30:	e8 4b ed ff ff       	call   8048880 <close@plt>
 8049b35:	8b 84 24 88 a0 00 00 	mov    0xa088(%esp),%eax
 8049b3c:	0f b6 00             	movzbl (%eax),%eax
 8049b3f:	83 e8 4f             	sub    $0x4f,%eax
 8049b42:	75 1b                	jne    8049b5f <submitr+0x6ee>
 8049b44:	8b 84 24 88 a0 00 00 	mov    0xa088(%esp),%eax
 8049b4b:	0f b6 40 01          	movzbl 0x1(%eax),%eax
 8049b4f:	83 e8 4b             	sub    $0x4b,%eax
 8049b52:	75 0b                	jne    8049b5f <submitr+0x6ee>
 8049b54:	8b 84 24 88 a0 00 00 	mov    0xa088(%esp),%eax
 8049b5b:	0f b6 40 02          	movzbl 0x2(%eax),%eax
 8049b5f:	85 c0                	test   %eax,%eax
 8049b61:	0f 95 c0             	setne  %al
 8049b64:	0f b6 c0             	movzbl %al,%eax
 8049b67:	f7 d8                	neg    %eax
 8049b69:	e9 ea 00 00 00       	jmp    8049c58 <submitr+0x7e7>
 8049b6e:	8d 84 24 34 40 00 00 	lea    0x4034(%esp),%eax
 8049b75:	89 44 24 14          	mov    %eax,0x14(%esp)
 8049b79:	8b 84 24 80 a0 00 00 	mov    0xa080(%esp),%eax
 8049b80:	89 44 24 10          	mov    %eax,0x10(%esp)
 8049b84:	8b 84 24 7c a0 00 00 	mov    0xa07c(%esp),%eax
 8049b8b:	89 44 24 0c          	mov    %eax,0xc(%esp)
 8049b8f:	8b 84 24 78 a0 00 00 	mov    0xa078(%esp),%eax
 8049b96:	89 44 24 08          	mov    %eax,0x8(%esp)
 8049b9a:	c7 44 24 04 dc a7 04 	movl   $0x804a7dc,0x4(%esp)
 8049ba1:	08 
 8049ba2:	8d bc 24 34 60 00 00 	lea    0x6034(%esp),%edi
 8049ba9:	89 3c 24             	mov    %edi,(%esp)
 8049bac:	e8 8f ec ff ff       	call   8048840 <sprintf@plt>
 8049bb1:	b8 00 00 00 00       	mov    $0x0,%eax
 8049bb6:	b9 ff ff ff ff       	mov    $0xffffffff,%ecx
 8049bbb:	f2 ae                	repnz scas %es:(%edi),%al
 8049bbd:	f7 d1                	not    %ecx
 8049bbf:	83 e9 01             	sub    $0x1,%ecx
 8049bc2:	89 cf                	mov    %ecx,%edi
 8049bc4:	0f 84 cc fc ff ff    	je     8049896 <submitr+0x425>
 8049bca:	89 cb                	mov    %ecx,%ebx
 8049bcc:	8d b4 24 34 60 00 00 	lea    0x6034(%esp),%esi
 8049bd3:	e9 2b fc ff ff       	jmp    8049803 <submitr+0x392>
 8049bd8:	8b bc 24 88 a0 00 00 	mov    0xa088(%esp),%edi
 8049bdf:	be 28 a8 04 08       	mov    $0x804a828,%esi
 8049be4:	b8 43 00 00 00       	mov    $0x43,%eax
 8049be9:	f7 c7 01 00 00 00    	test   $0x1,%edi
 8049bef:	74 1d                	je     8049c0e <submitr+0x79d>
 8049bf1:	0f b6 05 28 a8 04 08 	movzbl 0x804a828,%eax
 8049bf8:	88 07                	mov    %al,(%edi)
 8049bfa:	8b 84 24 88 a0 00 00 	mov    0xa088(%esp),%eax
 8049c01:	8d 78 01             	lea    0x1(%eax),%edi
 8049c04:	be 29 a8 04 08       	mov    $0x804a829,%esi
 8049c09:	b8 42 00 00 00       	mov    $0x42,%eax
 8049c0e:	f7 c7 02 00 00 00    	test   $0x2,%edi
 8049c14:	74 0f                	je     8049c25 <submitr+0x7b4>
 8049c16:	0f b7 16             	movzwl (%esi),%edx
 8049c19:	66 89 17             	mov    %dx,(%edi)
 8049c1c:	83 c7 02             	add    $0x2,%edi
 8049c1f:	83 c6 02             	add    $0x2,%esi
 8049c22:	83 e8 02             	sub    $0x2,%eax
 8049c25:	89 c1                	mov    %eax,%ecx
 8049c27:	c1 e9 02             	shr    $0x2,%ecx
 8049c2a:	f3 a5                	rep movsl %ds:(%esi),%es:(%edi)
 8049c2c:	ba 00 00 00 00       	mov    $0x0,%edx
 8049c31:	a8 02                	test   $0x2,%al
 8049c33:	74 0b                	je     8049c40 <submitr+0x7cf>
 8049c35:	0f b7 16             	movzwl (%esi),%edx
 8049c38:	66 89 17             	mov    %dx,(%edi)
 8049c3b:	ba 02 00 00 00       	mov    $0x2,%edx
 8049c40:	a8 01                	test   $0x1,%al
 8049c42:	74 07                	je     8049c4b <submitr+0x7da>
 8049c44:	0f b6 04 16          	movzbl (%esi,%edx,1),%eax
 8049c48:	88 04 17             	mov    %al,(%edi,%edx,1)
 8049c4b:	89 2c 24             	mov    %ebp,(%esp)
 8049c4e:	e8 2d ec ff ff       	call   8048880 <close@plt>
 8049c53:	b8 ff ff ff ff       	mov    $0xffffffff,%eax
 8049c58:	81 c4 5c a0 00 00    	add    $0xa05c,%esp
 8049c5e:	5b                   	pop    %ebx
 8049c5f:	5e                   	pop    %esi
 8049c60:	5f                   	pop    %edi
 8049c61:	5d                   	pop    %ebp
 8049c62:	c3                   	ret    

08049c63 <init_timeout>:
 8049c63:	53                   	push   %ebx
 8049c64:	83 ec 18             	sub    $0x18,%esp
 8049c67:	8b 5c 24 20          	mov    0x20(%esp),%ebx
 8049c6b:	85 db                	test   %ebx,%ebx
 8049c6d:	74 26                	je     8049c95 <init_timeout+0x32>
 8049c6f:	c7 44 24 04 40 93 04 	movl   $0x8049340,0x4(%esp)
 8049c76:	08 
 8049c77:	c7 04 24 0e 00 00 00 	movl   $0xe,(%esp)
 8049c7e:	e8 bd ea ff ff       	call   8048740 <signal@plt>
 8049c83:	85 db                	test   %ebx,%ebx
 8049c85:	b8 00 00 00 00       	mov    $0x0,%eax
 8049c8a:	0f 48 d8             	cmovs  %eax,%ebx
 8049c8d:	89 1c 24             	mov    %ebx,(%esp)
 8049c90:	e8 cb ea ff ff       	call   8048760 <alarm@plt>
 8049c95:	83 c4 18             	add    $0x18,%esp
 8049c98:	5b                   	pop    %ebx
 8049c99:	c3                   	ret    

08049c9a <init_driver>:
 8049c9a:	57                   	push   %edi
 8049c9b:	56                   	push   %esi
 8049c9c:	53                   	push   %ebx
 8049c9d:	83 ec 20             	sub    $0x20,%esp
 8049ca0:	8b 74 24 30          	mov    0x30(%esp),%esi
 8049ca4:	c7 44 24 04 01 00 00 	movl   $0x1,0x4(%esp)
 8049cab:	00 
 8049cac:	c7 04 24 0d 00 00 00 	movl   $0xd,(%esp)
 8049cb3:	e8 88 ea ff ff       	call   8048740 <signal@plt>
 8049cb8:	c7 44 24 04 01 00 00 	movl   $0x1,0x4(%esp)
 8049cbf:	00 
 8049cc0:	c7 04 24 1d 00 00 00 	movl   $0x1d,(%esp)
 8049cc7:	e8 74 ea ff ff       	call   8048740 <signal@plt>
 8049ccc:	c7 44 24 04 01 00 00 	movl   $0x1,0x4(%esp)
 8049cd3:	00 
 8049cd4:	c7 04 24 1d 00 00 00 	movl   $0x1d,(%esp)
 8049cdb:	e8 60 ea ff ff       	call   8048740 <signal@plt>
 8049ce0:	c7 44 24 08 00 00 00 	movl   $0x0,0x8(%esp)
 8049ce7:	00 
 8049ce8:	c7 44 24 04 01 00 00 	movl   $0x1,0x4(%esp)
 8049cef:	00 
 8049cf0:	c7 04 24 02 00 00 00 	movl   $0x2,(%esp)
 8049cf7:	e8 54 eb ff ff       	call   8048850 <socket@plt>
 8049cfc:	89 c3                	mov    %eax,%ebx
 8049cfe:	85 c0                	test   %eax,%eax
 8049d00:	79 4e                	jns    8049d50 <init_driver+0xb6>
 8049d02:	c7 06 45 72 72 6f    	movl   $0x6f727245,(%esi)
 8049d08:	c7 46 04 72 3a 20 43 	movl   $0x43203a72,0x4(%esi)
 8049d0f:	c7 46 08 6c 69 65 6e 	movl   $0x6e65696c,0x8(%esi)
 8049d16:	c7 46 0c 74 20 75 6e 	movl   $0x6e752074,0xc(%esi)
 8049d1d:	c7 46 10 61 62 6c 65 	movl   $0x656c6261,0x10(%esi)
 8049d24:	c7 46 14 20 74 6f 20 	movl   $0x206f7420,0x14(%esi)
 8049d2b:	c7 46 18 63 72 65 61 	movl   $0x61657263,0x18(%esi)
 8049d32:	c7 46 1c 74 65 20 73 	movl   $0x73206574,0x1c(%esi)
 8049d39:	c7 46 20 6f 63 6b 65 	movl   $0x656b636f,0x20(%esi)
 8049d40:	66 c7 46 24 74 00    	movw   $0x74,0x24(%esi)
 8049d46:	b8 ff ff ff ff       	mov    $0xffffffff,%eax
 8049d4b:	e9 1b 01 00 00       	jmp    8049e6b <init_driver+0x1d1>
 8049d50:	c7 04 24 4f a5 04 08 	movl   $0x804a54f,(%esp)
 8049d57:	e8 04 eb ff ff       	call   8048860 <gethostbyname@plt>
 8049d5c:	85 c0                	test   %eax,%eax
 8049d5e:	75 68                	jne    8049dc8 <init_driver+0x12e>
 8049d60:	c7 06 45 72 72 6f    	movl   $0x6f727245,(%esi)
 8049d66:	c7 46 04 72 3a 20 44 	movl   $0x44203a72,0x4(%esi)
 8049d6d:	c7 46 08 4e 53 20 69 	movl   $0x6920534e,0x8(%esi)
 8049d74:	c7 46 0c 73 20 75 6e 	movl   $0x6e752073,0xc(%esi)
 8049d7b:	c7 46 10 61 62 6c 65 	movl   $0x656c6261,0x10(%esi)
 8049d82:	c7 46 14 20 74 6f 20 	movl   $0x206f7420,0x14(%esi)
 8049d89:	c7 46 18 72 65 73 6f 	movl   $0x6f736572,0x18(%esi)
 8049d90:	c7 46 1c 6c 76 65 20 	movl   $0x2065766c,0x1c(%esi)
 8049d97:	c7 46 20 73 65 72 76 	movl   $0x76726573,0x20(%esi)
 8049d9e:	c7 46 24 65 72 20 61 	movl   $0x61207265,0x24(%esi)
 8049da5:	c7 46 28 64 64 72 65 	movl   $0x65726464,0x28(%esi)
 8049dac:	66 c7 46 2c 73 73    	movw   $0x7373,0x2c(%esi)
 8049db2:	c6 46 2e 00          	movb   $0x0,0x2e(%esi)
 8049db6:	89 1c 24             	mov    %ebx,(%esp)
 8049db9:	e8 c2 ea ff ff       	call   8048880 <close@plt>
 8049dbe:	b8 ff ff ff ff       	mov    $0xffffffff,%eax
 8049dc3:	e9 a3 00 00 00       	jmp    8049e6b <init_driver+0x1d1>
 8049dc8:	8d 7c 24 10          	lea    0x10(%esp),%edi
 8049dcc:	c7 44 24 10 00 00 00 	movl   $0x0,0x10(%esp)
 8049dd3:	00 
 8049dd4:	c7 44 24 14 00 00 00 	movl   $0x0,0x14(%esp)
 8049ddb:	00 
 8049ddc:	c7 44 24 18 00 00 00 	movl   $0x0,0x18(%esp)
 8049de3:	00 
 8049de4:	c7 44 24 1c 00 00 00 	movl   $0x0,0x1c(%esp)
 8049deb:	00 
 8049dec:	66 c7 44 24 10 02 00 	movw   $0x2,0x10(%esp)
 8049df3:	8b 50 0c             	mov    0xc(%eax),%edx
 8049df6:	89 54 24 08          	mov    %edx,0x8(%esp)
 8049dfa:	8d 54 24 14          	lea    0x14(%esp),%edx
 8049dfe:	89 54 24 04          	mov    %edx,0x4(%esp)
 8049e02:	8b 40 10             	mov    0x10(%eax),%eax
 8049e05:	8b 00                	mov    (%eax),%eax
 8049e07:	89 04 24             	mov    %eax,(%esp)
 8049e0a:	e8 61 e9 ff ff       	call   8048770 <bcopy@plt>
 8049e0f:	66 c7 44 24 12 23 8f 	movw   $0x8f23,0x12(%esp)
 8049e16:	c7 44 24 08 10 00 00 	movl   $0x10,0x8(%esp)
 8049e1d:	00 
 8049e1e:	89 7c 24 04          	mov    %edi,0x4(%esp)
 8049e22:	89 1c 24             	mov    %ebx,(%esp)
 8049e25:	e8 46 ea ff ff       	call   8048870 <connect@plt>
 8049e2a:	85 c0                	test   %eax,%eax
 8049e2c:	79 27                	jns    8049e55 <init_driver+0x1bb>
 8049e2e:	c7 44 24 08 4f a5 04 	movl   $0x804a54f,0x8(%esp)
 8049e35:	08 
 8049e36:	c7 44 24 04 6c a8 04 	movl   $0x804a86c,0x4(%esp)
 8049e3d:	08 
 8049e3e:	89 34 24             	mov    %esi,(%esp)
 8049e41:	e8 fa e9 ff ff       	call   8048840 <sprintf@plt>
 8049e46:	89 1c 24             	mov    %ebx,(%esp)
 8049e49:	e8 32 ea ff ff       	call   8048880 <close@plt>
 8049e4e:	b8 ff ff ff ff       	mov    $0xffffffff,%eax
 8049e53:	eb 16                	jmp    8049e6b <init_driver+0x1d1>
 8049e55:	89 1c 24             	mov    %ebx,(%esp)
 8049e58:	e8 23 ea ff ff       	call   8048880 <close@plt>
 8049e5d:	66 c7 06 4f 4b       	movw   $0x4b4f,(%esi)
 8049e62:	c6 46 02 00          	movb   $0x0,0x2(%esi)
 8049e66:	b8 00 00 00 00       	mov    $0x0,%eax
 8049e6b:	83 c4 20             	add    $0x20,%esp
 8049e6e:	5b                   	pop    %ebx
 8049e6f:	5e                   	pop    %esi
 8049e70:	5f                   	pop    %edi
 8049e71:	c3                   	ret    

08049e72 <driver_post>:
 8049e72:	53                   	push   %ebx
 8049e73:	83 ec 28             	sub    $0x28,%esp
 8049e76:	8b 44 24 30          	mov    0x30(%esp),%eax
 8049e7a:	8b 5c 24 3c          	mov    0x3c(%esp),%ebx
 8049e7e:	83 7c 24 38 00       	cmpl   $0x0,0x38(%esp)
 8049e83:	74 24                	je     8049ea9 <driver_post+0x37>
 8049e85:	8b 44 24 34          	mov    0x34(%esp),%eax
 8049e89:	89 44 24 04          	mov    %eax,0x4(%esp)
 8049e8d:	c7 04 24 ac a8 04 08 	movl   $0x804a8ac,(%esp)
 8049e94:	e8 67 e8 ff ff       	call   8048700 <printf@plt>
 8049e99:	66 c7 03 4f 4b       	movw   $0x4b4f,(%ebx)
 8049e9e:	c6 43 02 00          	movb   $0x0,0x2(%ebx)
 8049ea2:	b8 00 00 00 00       	mov    $0x0,%eax
 8049ea7:	eb 4d                	jmp    8049ef6 <driver_post+0x84>
 8049ea9:	85 c0                	test   %eax,%eax
 8049eab:	74 3b                	je     8049ee8 <driver_post+0x76>
 8049ead:	80 38 00             	cmpb   $0x0,(%eax)
 8049eb0:	74 36                	je     8049ee8 <driver_post+0x76>
 8049eb2:	89 5c 24 18          	mov    %ebx,0x18(%esp)
 8049eb6:	8b 54 24 34          	mov    0x34(%esp),%edx
 8049eba:	89 54 24 14          	mov    %edx,0x14(%esp)
 8049ebe:	c7 44 24 10 c3 a8 04 	movl   $0x804a8c3,0x10(%esp)
 8049ec5:	08 
 8049ec6:	89 44 24 0c          	mov    %eax,0xc(%esp)
 8049eca:	c7 44 24 08 ce a8 04 	movl   $0x804a8ce,0x8(%esp)
 8049ed1:	08 
 8049ed2:	c7 44 24 04 8f 23 00 	movl   $0x238f,0x4(%esp)
 8049ed9:	00 
 8049eda:	c7 04 24 4f a5 04 08 	movl   $0x804a54f,(%esp)
 8049ee1:	e8 8b f5 ff ff       	call   8049471 <submitr>
 8049ee6:	eb 0e                	jmp    8049ef6 <driver_post+0x84>
 8049ee8:	66 c7 03 4f 4b       	movw   $0x4b4f,(%ebx)
 8049eed:	c6 43 02 00          	movb   $0x0,0x2(%ebx)
 8049ef1:	b8 00 00 00 00       	mov    $0x0,%eax
 8049ef6:	83 c4 28             	add    $0x28,%esp
 8049ef9:	5b                   	pop    %ebx
 8049efa:	c3                   	ret    
 8049efb:	66 90                	xchg   %ax,%ax
 8049efd:	66 90                	xchg   %ax,%ax
 8049eff:	90                   	nop

08049f00 <__libc_csu_init>:
 8049f00:	55                   	push   %ebp
 8049f01:	57                   	push   %edi
 8049f02:	31 ff                	xor    %edi,%edi
 8049f04:	56                   	push   %esi
 8049f05:	53                   	push   %ebx
 8049f06:	e8 d5 e9 ff ff       	call   80488e0 <__x86.get_pc_thunk.bx>
 8049f0b:	81 c3 f5 20 00 00    	add    $0x20f5,%ebx
 8049f11:	83 ec 1c             	sub    $0x1c,%esp
 8049f14:	8b 6c 24 30          	mov    0x30(%esp),%ebp
 8049f18:	8d b3 0c ff ff ff    	lea    -0xf4(%ebx),%esi
 8049f1e:	e8 99 e7 ff ff       	call   80486bc <_init>
 8049f23:	8d 83 08 ff ff ff    	lea    -0xf8(%ebx),%eax
 8049f29:	29 c6                	sub    %eax,%esi
 8049f2b:	c1 fe 02             	sar    $0x2,%esi
 8049f2e:	85 f6                	test   %esi,%esi
 8049f30:	74 27                	je     8049f59 <__libc_csu_init+0x59>
 8049f32:	8d b6 00 00 00 00    	lea    0x0(%esi),%esi
 8049f38:	8b 44 24 38          	mov    0x38(%esp),%eax
 8049f3c:	89 2c 24             	mov    %ebp,(%esp)
 8049f3f:	89 44 24 08          	mov    %eax,0x8(%esp)
 8049f43:	8b 44 24 34          	mov    0x34(%esp),%eax
 8049f47:	89 44 24 04          	mov    %eax,0x4(%esp)
 8049f4b:	ff 94 bb 08 ff ff ff 	call   *-0xf8(%ebx,%edi,4)
 8049f52:	83 c7 01             	add    $0x1,%edi
 8049f55:	39 f7                	cmp    %esi,%edi
 8049f57:	75 df                	jne    8049f38 <__libc_csu_init+0x38>
 8049f59:	83 c4 1c             	add    $0x1c,%esp
 8049f5c:	5b                   	pop    %ebx
 8049f5d:	5e                   	pop    %esi
 8049f5e:	5f                   	pop    %edi
 8049f5f:	5d                   	pop    %ebp
 8049f60:	c3                   	ret    
 8049f61:	eb 0d                	jmp    8049f70 <__libc_csu_fini>
 8049f63:	90                   	nop
 8049f64:	90                   	nop
 8049f65:	90                   	nop
 8049f66:	90                   	nop
 8049f67:	90                   	nop
 8049f68:	90                   	nop
 8049f69:	90                   	nop
 8049f6a:	90                   	nop
 8049f6b:	90                   	nop
 8049f6c:	90                   	nop
 8049f6d:	90                   	nop
 8049f6e:	90                   	nop
 8049f6f:	90                   	nop

08049f70 <__libc_csu_fini>:
 8049f70:	f3 c3                	repz ret 

Disassembly of section .fini:

08049f74 <_fini>:
 8049f74:	53                   	push   %ebx
 8049f75:	83 ec 08             	sub    $0x8,%esp
 8049f78:	e8 63 e9 ff ff       	call   80488e0 <__x86.get_pc_thunk.bx>
 8049f7d:	81 c3 83 20 00 00    	add    $0x2083,%ebx
 8049f83:	83 c4 08             	add    $0x8,%esp
 8049f86:	5b                   	pop    %ebx
 8049f87:	c3                   	ret    
